   1               		.file	"usbdrv.c"
   2               	__SP_H__ = 0x3e
   3               	__SP_L__ = 0x3d
   4               	__SREG__ = 0x3f
   5               	__tmp_reg__ = 0
   6               	__zero_reg__ = 1
   7               		.text
   8               	.Ltext0:
   9               		.cfi_sections	.debug_frame
  10               	.global	usbSetInterrupt
  11               		.type	usbSetInterrupt, @function
  12               	usbSetInterrupt:
  13               	.LFB5:
  14               		.file 1 "../usbdrv/usbdrv.c"
   1:../usbdrv/usbdrv.c **** /* Name: usbdrv.c
   2:../usbdrv/usbdrv.c ****  * Project: V-USB, virtual USB port for Atmel's(r) AVR(r) microcontrollers
   3:../usbdrv/usbdrv.c ****  * Author: Christian Starkjohann
   4:../usbdrv/usbdrv.c ****  * Creation Date: 2004-12-29
   5:../usbdrv/usbdrv.c ****  * Tabsize: 4
   6:../usbdrv/usbdrv.c ****  * Copyright: (c) 2005 by OBJECTIVE DEVELOPMENT Software GmbH
   7:../usbdrv/usbdrv.c ****  * License: GNU GPL v2 (see License.txt), GNU GPL v3 or proprietary (CommercialLicense.txt)
   8:../usbdrv/usbdrv.c ****  * This Revision: $Id: usbdrv.c 791 2010-07-15 15:56:13Z cs $
   9:../usbdrv/usbdrv.c ****  */
  10:../usbdrv/usbdrv.c **** 
  11:../usbdrv/usbdrv.c **** #include "usbportability.h"
  12:../usbdrv/usbdrv.c **** #include "usbdrv.h"
  13:../usbdrv/usbdrv.c **** #include "oddebug.h"
  14:../usbdrv/usbdrv.c **** 
  15:../usbdrv/usbdrv.c **** /*
  16:../usbdrv/usbdrv.c **** General Description:
  17:../usbdrv/usbdrv.c **** This module implements the C-part of the USB driver. See usbdrv.h for a
  18:../usbdrv/usbdrv.c **** documentation of the entire driver.
  19:../usbdrv/usbdrv.c **** */
  20:../usbdrv/usbdrv.c **** 
  21:../usbdrv/usbdrv.c **** /* ------------------------------------------------------------------------- */
  22:../usbdrv/usbdrv.c **** 
  23:../usbdrv/usbdrv.c **** /* raw USB registers / interface to assembler code: */
  24:../usbdrv/usbdrv.c **** uchar usbRxBuf[2*USB_BUFSIZE];  /* raw RX buffer: PID, 8 bytes data, 2 bytes CRC */
  25:../usbdrv/usbdrv.c **** uchar       usbInputBufOffset;  /* offset in usbRxBuf used for low level receiving */
  26:../usbdrv/usbdrv.c **** uchar       usbDeviceAddr;      /* assigned during enumeration, defaults to 0 */
  27:../usbdrv/usbdrv.c **** uchar       usbNewDeviceAddr;   /* device ID which should be set after status phase */
  28:../usbdrv/usbdrv.c **** uchar       usbConfiguration;   /* currently selected configuration. Administered by driver, but no
  29:../usbdrv/usbdrv.c **** volatile schar usbRxLen;        /* = 0; number of bytes in usbRxBuf; 0 means free, -1 for flow cont
  30:../usbdrv/usbdrv.c **** uchar       usbCurrentTok;      /* last token received or endpoint number for last OUT token if != 
  31:../usbdrv/usbdrv.c **** uchar       usbRxToken;         /* token for data we received; or endpont number for last OUT */
  32:../usbdrv/usbdrv.c **** volatile uchar usbTxLen = USBPID_NAK;   /* number of bytes to transmit with next IN token or handsh
  33:../usbdrv/usbdrv.c **** uchar       usbTxBuf[USB_BUFSIZE];/* data to transmit with next IN, free if usbTxLen contains hands
  34:../usbdrv/usbdrv.c **** #if USB_COUNT_SOF
  35:../usbdrv/usbdrv.c **** volatile uchar  usbSofCount;    /* incremented by assembler module every SOF */
  36:../usbdrv/usbdrv.c **** #endif
  37:../usbdrv/usbdrv.c **** #if USB_CFG_HAVE_INTRIN_ENDPOINT && !USB_CFG_SUPPRESS_INTR_CODE
  38:../usbdrv/usbdrv.c **** usbTxStatus_t  usbTxStatus1;
  39:../usbdrv/usbdrv.c **** #   if USB_CFG_HAVE_INTRIN_ENDPOINT3
  40:../usbdrv/usbdrv.c **** usbTxStatus_t  usbTxStatus3;
  41:../usbdrv/usbdrv.c **** #   endif
  42:../usbdrv/usbdrv.c **** #endif
  43:../usbdrv/usbdrv.c **** #if USB_CFG_CHECK_DATA_TOGGLING
  44:../usbdrv/usbdrv.c **** uchar       usbCurrentDataToken;/* when we check data toggling to ignore duplicate packets */
  45:../usbdrv/usbdrv.c **** #endif
  46:../usbdrv/usbdrv.c **** 
  47:../usbdrv/usbdrv.c **** /* USB status registers / not shared with asm code */
  48:../usbdrv/usbdrv.c **** uchar               *usbMsgPtr;     /* data to transmit next -- ROM or RAM address */
  49:../usbdrv/usbdrv.c **** static usbMsgLen_t  usbMsgLen = USB_NO_MSG; /* remaining number of bytes */
  50:../usbdrv/usbdrv.c **** static uchar        usbMsgFlags;    /* flag values see below */
  51:../usbdrv/usbdrv.c **** 
  52:../usbdrv/usbdrv.c **** #define USB_FLG_MSGPTR_IS_ROM   (1<<6)
  53:../usbdrv/usbdrv.c **** #define USB_FLG_USE_USER_RW     (1<<7)
  54:../usbdrv/usbdrv.c **** 
  55:../usbdrv/usbdrv.c **** /*
  56:../usbdrv/usbdrv.c **** optimizing hints:
  57:../usbdrv/usbdrv.c **** - do not post/pre inc/dec integer values in operations
  58:../usbdrv/usbdrv.c **** - assign value of USB_READ_FLASH() to register variables and don't use side effects in arg
  59:../usbdrv/usbdrv.c **** - use narrow scope for variables which should be in X/Y/Z register
  60:../usbdrv/usbdrv.c **** - assign char sized expressions to variables to force 8 bit arithmetics
  61:../usbdrv/usbdrv.c **** */
  62:../usbdrv/usbdrv.c **** 
  63:../usbdrv/usbdrv.c **** /* -------------------------- String Descriptors --------------------------- */
  64:../usbdrv/usbdrv.c **** 
  65:../usbdrv/usbdrv.c **** #if USB_CFG_DESCR_PROPS_STRINGS == 0
  66:../usbdrv/usbdrv.c **** 
  67:../usbdrv/usbdrv.c **** #if USB_CFG_DESCR_PROPS_STRING_0 == 0
  68:../usbdrv/usbdrv.c **** #undef USB_CFG_DESCR_PROPS_STRING_0
  69:../usbdrv/usbdrv.c **** #define USB_CFG_DESCR_PROPS_STRING_0    sizeof(usbDescriptorString0)
  70:../usbdrv/usbdrv.c **** PROGMEM const char usbDescriptorString0[] = { /* language descriptor */
  71:../usbdrv/usbdrv.c ****     4,          /* sizeof(usbDescriptorString0): length of descriptor in bytes */
  72:../usbdrv/usbdrv.c ****     3,          /* descriptor type */
  73:../usbdrv/usbdrv.c ****     0x09, 0x04, /* language index (0x0409 = US-English) */
  74:../usbdrv/usbdrv.c **** };
  75:../usbdrv/usbdrv.c **** #endif
  76:../usbdrv/usbdrv.c **** 
  77:../usbdrv/usbdrv.c **** #if USB_CFG_DESCR_PROPS_STRING_VENDOR == 0 && USB_CFG_VENDOR_NAME_LEN
  78:../usbdrv/usbdrv.c **** #undef USB_CFG_DESCR_PROPS_STRING_VENDOR
  79:../usbdrv/usbdrv.c **** #define USB_CFG_DESCR_PROPS_STRING_VENDOR   sizeof(usbDescriptorStringVendor)
  80:../usbdrv/usbdrv.c **** PROGMEM const int  usbDescriptorStringVendor[] = {
  81:../usbdrv/usbdrv.c ****     USB_STRING_DESCRIPTOR_HEADER(USB_CFG_VENDOR_NAME_LEN),
  82:../usbdrv/usbdrv.c ****     USB_CFG_VENDOR_NAME
  83:../usbdrv/usbdrv.c **** };
  84:../usbdrv/usbdrv.c **** #endif
  85:../usbdrv/usbdrv.c **** 
  86:../usbdrv/usbdrv.c **** #if USB_CFG_DESCR_PROPS_STRING_PRODUCT == 0 && USB_CFG_DEVICE_NAME_LEN
  87:../usbdrv/usbdrv.c **** #undef USB_CFG_DESCR_PROPS_STRING_PRODUCT
  88:../usbdrv/usbdrv.c **** #define USB_CFG_DESCR_PROPS_STRING_PRODUCT   sizeof(usbDescriptorStringDevice)
  89:../usbdrv/usbdrv.c **** PROGMEM const int  usbDescriptorStringDevice[] = {
  90:../usbdrv/usbdrv.c ****     USB_STRING_DESCRIPTOR_HEADER(USB_CFG_DEVICE_NAME_LEN),
  91:../usbdrv/usbdrv.c ****     USB_CFG_DEVICE_NAME
  92:../usbdrv/usbdrv.c **** };
  93:../usbdrv/usbdrv.c **** #endif
  94:../usbdrv/usbdrv.c **** 
  95:../usbdrv/usbdrv.c **** #if USB_CFG_DESCR_PROPS_STRING_SERIAL_NUMBER == 0 && USB_CFG_SERIAL_NUMBER_LEN
  96:../usbdrv/usbdrv.c **** #undef USB_CFG_DESCR_PROPS_STRING_SERIAL_NUMBER
  97:../usbdrv/usbdrv.c **** #define USB_CFG_DESCR_PROPS_STRING_SERIAL_NUMBER    sizeof(usbDescriptorStringSerialNumber)
  98:../usbdrv/usbdrv.c **** PROGMEM const int usbDescriptorStringSerialNumber[] = {
  99:../usbdrv/usbdrv.c ****     USB_STRING_DESCRIPTOR_HEADER(USB_CFG_SERIAL_NUMBER_LEN),
 100:../usbdrv/usbdrv.c ****     USB_CFG_SERIAL_NUMBER
 101:../usbdrv/usbdrv.c **** };
 102:../usbdrv/usbdrv.c **** #endif
 103:../usbdrv/usbdrv.c **** 
 104:../usbdrv/usbdrv.c **** #endif  /* USB_CFG_DESCR_PROPS_STRINGS == 0 */
 105:../usbdrv/usbdrv.c **** 
 106:../usbdrv/usbdrv.c **** /* --------------------------- Device Descriptor --------------------------- */
 107:../usbdrv/usbdrv.c **** 
 108:../usbdrv/usbdrv.c **** #if USB_CFG_DESCR_PROPS_DEVICE == 0
 109:../usbdrv/usbdrv.c **** #undef USB_CFG_DESCR_PROPS_DEVICE
 110:../usbdrv/usbdrv.c **** #define USB_CFG_DESCR_PROPS_DEVICE  sizeof(usbDescriptorDevice)
 111:../usbdrv/usbdrv.c **** PROGMEM const char usbDescriptorDevice[] = {    /* USB device descriptor */
 112:../usbdrv/usbdrv.c ****     18,         /* sizeof(usbDescriptorDevice): length of descriptor in bytes */
 113:../usbdrv/usbdrv.c ****     USBDESCR_DEVICE,        /* descriptor type */
 114:../usbdrv/usbdrv.c ****     0x10, 0x01,             /* USB version supported */
 115:../usbdrv/usbdrv.c ****     USB_CFG_DEVICE_CLASS,
 116:../usbdrv/usbdrv.c ****     USB_CFG_DEVICE_SUBCLASS,
 117:../usbdrv/usbdrv.c ****     0,                      /* protocol */
 118:../usbdrv/usbdrv.c ****     8,                      /* max packet size */
 119:../usbdrv/usbdrv.c ****     /* the following two casts affect the first byte of the constant only, but
 120:../usbdrv/usbdrv.c ****      * that's sufficient to avoid a warning with the default values.
 121:../usbdrv/usbdrv.c ****      */
 122:../usbdrv/usbdrv.c ****     (char)USB_CFG_VENDOR_ID,/* 2 bytes */
 123:../usbdrv/usbdrv.c ****     (char)USB_CFG_DEVICE_ID,/* 2 bytes */
 124:../usbdrv/usbdrv.c ****     USB_CFG_DEVICE_VERSION, /* 2 bytes */
 125:../usbdrv/usbdrv.c ****     USB_CFG_DESCR_PROPS_STRING_VENDOR != 0 ? 1 : 0,         /* manufacturer string index */
 126:../usbdrv/usbdrv.c ****     USB_CFG_DESCR_PROPS_STRING_PRODUCT != 0 ? 2 : 0,        /* product string index */
 127:../usbdrv/usbdrv.c ****     USB_CFG_DESCR_PROPS_STRING_SERIAL_NUMBER != 0 ? 3 : 0,  /* serial number string index */
 128:../usbdrv/usbdrv.c ****     1,          /* number of configurations */
 129:../usbdrv/usbdrv.c **** };
 130:../usbdrv/usbdrv.c **** #endif
 131:../usbdrv/usbdrv.c **** 
 132:../usbdrv/usbdrv.c **** /* ----------------------- Configuration Descriptor ------------------------ */
 133:../usbdrv/usbdrv.c **** 
 134:../usbdrv/usbdrv.c **** #if USB_CFG_DESCR_PROPS_HID_REPORT != 0 && USB_CFG_DESCR_PROPS_HID == 0
 135:../usbdrv/usbdrv.c **** #undef USB_CFG_DESCR_PROPS_HID
 136:../usbdrv/usbdrv.c **** #define USB_CFG_DESCR_PROPS_HID     9   /* length of HID descriptor in config descriptor below */
 137:../usbdrv/usbdrv.c **** #endif
 138:../usbdrv/usbdrv.c **** 
 139:../usbdrv/usbdrv.c **** #if USB_CFG_DESCR_PROPS_CONFIGURATION == 0
 140:../usbdrv/usbdrv.c **** #undef USB_CFG_DESCR_PROPS_CONFIGURATION
 141:../usbdrv/usbdrv.c **** #define USB_CFG_DESCR_PROPS_CONFIGURATION   sizeof(usbDescriptorConfiguration)
 142:../usbdrv/usbdrv.c **** PROGMEM const char usbDescriptorConfiguration[] = {    /* USB configuration descriptor */
 143:../usbdrv/usbdrv.c ****     9,          /* sizeof(usbDescriptorConfiguration): length of descriptor in bytes */
 144:../usbdrv/usbdrv.c ****     USBDESCR_CONFIG,    /* descriptor type */
 145:../usbdrv/usbdrv.c ****     18 + 7 * USB_CFG_HAVE_INTRIN_ENDPOINT + 7 * USB_CFG_HAVE_INTRIN_ENDPOINT3 +
 146:../usbdrv/usbdrv.c ****                 (USB_CFG_DESCR_PROPS_HID & 0xff), 0,
 147:../usbdrv/usbdrv.c ****                 /* total length of data returned (including inlined descriptors) */
 148:../usbdrv/usbdrv.c ****     1,          /* number of interfaces in this configuration */
 149:../usbdrv/usbdrv.c ****     1,          /* index of this configuration */
 150:../usbdrv/usbdrv.c ****     0,          /* configuration name string index */
 151:../usbdrv/usbdrv.c **** #if USB_CFG_IS_SELF_POWERED
 152:../usbdrv/usbdrv.c ****     (1 << 7) | USBATTR_SELFPOWER,       /* attributes */
 153:../usbdrv/usbdrv.c **** #else
 154:../usbdrv/usbdrv.c ****     (1 << 7),                           /* attributes */
 155:../usbdrv/usbdrv.c **** #endif
 156:../usbdrv/usbdrv.c ****     USB_CFG_MAX_BUS_POWER/2,            /* max USB current in 2mA units */
 157:../usbdrv/usbdrv.c **** /* interface descriptor follows inline: */
 158:../usbdrv/usbdrv.c ****     9,          /* sizeof(usbDescrInterface): length of descriptor in bytes */
 159:../usbdrv/usbdrv.c ****     USBDESCR_INTERFACE, /* descriptor type */
 160:../usbdrv/usbdrv.c ****     0,          /* index of this interface */
 161:../usbdrv/usbdrv.c ****     0,          /* alternate setting for this interface */
 162:../usbdrv/usbdrv.c ****     USB_CFG_HAVE_INTRIN_ENDPOINT + USB_CFG_HAVE_INTRIN_ENDPOINT3, /* endpoints excl 0: number of en
 163:../usbdrv/usbdrv.c ****     USB_CFG_INTERFACE_CLASS,
 164:../usbdrv/usbdrv.c ****     USB_CFG_INTERFACE_SUBCLASS,
 165:../usbdrv/usbdrv.c ****     USB_CFG_INTERFACE_PROTOCOL,
 166:../usbdrv/usbdrv.c ****     0,          /* string index for interface */
 167:../usbdrv/usbdrv.c **** #if (USB_CFG_DESCR_PROPS_HID & 0xff)    /* HID descriptor */
 168:../usbdrv/usbdrv.c ****     9,          /* sizeof(usbDescrHID): length of descriptor in bytes */
 169:../usbdrv/usbdrv.c ****     USBDESCR_HID,   /* descriptor type: HID */
 170:../usbdrv/usbdrv.c ****     0x01, 0x01, /* BCD representation of HID version */
 171:../usbdrv/usbdrv.c ****     0x00,       /* target country code */
 172:../usbdrv/usbdrv.c ****     0x01,       /* number of HID Report (or other HID class) Descriptor infos to follow */
 173:../usbdrv/usbdrv.c ****     0x22,       /* descriptor type: report */
 174:../usbdrv/usbdrv.c ****     USB_CFG_HID_REPORT_DESCRIPTOR_LENGTH, 0,  /* total length of report descriptor */
 175:../usbdrv/usbdrv.c **** #endif
 176:../usbdrv/usbdrv.c **** #if USB_CFG_HAVE_INTRIN_ENDPOINT    /* endpoint descriptor for endpoint 1 */
 177:../usbdrv/usbdrv.c ****     7,          /* sizeof(usbDescrEndpoint) */
 178:../usbdrv/usbdrv.c ****     USBDESCR_ENDPOINT,  /* descriptor type = endpoint */
 179:../usbdrv/usbdrv.c ****     (char)0x81, /* IN endpoint number 1 */
 180:../usbdrv/usbdrv.c ****     0x03,       /* attrib: Interrupt endpoint */
 181:../usbdrv/usbdrv.c ****     8, 0,       /* maximum packet size */
 182:../usbdrv/usbdrv.c ****     USB_CFG_INTR_POLL_INTERVAL, /* in ms */
 183:../usbdrv/usbdrv.c **** #endif
 184:../usbdrv/usbdrv.c **** #if USB_CFG_HAVE_INTRIN_ENDPOINT3   /* endpoint descriptor for endpoint 3 */
 185:../usbdrv/usbdrv.c ****     7,          /* sizeof(usbDescrEndpoint) */
 186:../usbdrv/usbdrv.c ****     USBDESCR_ENDPOINT,  /* descriptor type = endpoint */
 187:../usbdrv/usbdrv.c ****     (char)(0x80 | USB_CFG_EP3_NUMBER), /* IN endpoint number 3 */
 188:../usbdrv/usbdrv.c ****     0x03,       /* attrib: Interrupt endpoint */
 189:../usbdrv/usbdrv.c ****     8, 0,       /* maximum packet size */
 190:../usbdrv/usbdrv.c ****     USB_CFG_INTR_POLL_INTERVAL, /* in ms */
 191:../usbdrv/usbdrv.c **** #endif
 192:../usbdrv/usbdrv.c **** };
 193:../usbdrv/usbdrv.c **** #endif
 194:../usbdrv/usbdrv.c **** 
 195:../usbdrv/usbdrv.c **** /* ------------------------------------------------------------------------- */
 196:../usbdrv/usbdrv.c **** 
 197:../usbdrv/usbdrv.c **** static inline void  usbResetDataToggling(void)
 198:../usbdrv/usbdrv.c **** {
 199:../usbdrv/usbdrv.c **** #if USB_CFG_HAVE_INTRIN_ENDPOINT && !USB_CFG_SUPPRESS_INTR_CODE
 200:../usbdrv/usbdrv.c ****     USB_SET_DATATOKEN1(USB_INITIAL_DATATOKEN);  /* reset data toggling for interrupt endpoint */
 201:../usbdrv/usbdrv.c **** #   if USB_CFG_HAVE_INTRIN_ENDPOINT3
 202:../usbdrv/usbdrv.c ****     USB_SET_DATATOKEN3(USB_INITIAL_DATATOKEN);  /* reset data toggling for interrupt endpoint */
 203:../usbdrv/usbdrv.c **** #   endif
 204:../usbdrv/usbdrv.c **** #endif
 205:../usbdrv/usbdrv.c **** }
 206:../usbdrv/usbdrv.c **** 
 207:../usbdrv/usbdrv.c **** static inline void  usbResetStall(void)
 208:../usbdrv/usbdrv.c **** {
 209:../usbdrv/usbdrv.c **** #if USB_CFG_IMPLEMENT_HALT && USB_CFG_HAVE_INTRIN_ENDPOINT
 210:../usbdrv/usbdrv.c ****         usbTxLen1 = USBPID_NAK;
 211:../usbdrv/usbdrv.c **** #if USB_CFG_HAVE_INTRIN_ENDPOINT3
 212:../usbdrv/usbdrv.c ****         usbTxLen3 = USBPID_NAK;
 213:../usbdrv/usbdrv.c **** #endif
 214:../usbdrv/usbdrv.c **** #endif
 215:../usbdrv/usbdrv.c **** }
 216:../usbdrv/usbdrv.c **** 
 217:../usbdrv/usbdrv.c **** /* ------------------------------------------------------------------------- */
 218:../usbdrv/usbdrv.c **** 
 219:../usbdrv/usbdrv.c **** #if !USB_CFG_SUPPRESS_INTR_CODE
 220:../usbdrv/usbdrv.c **** #if USB_CFG_HAVE_INTRIN_ENDPOINT
 221:../usbdrv/usbdrv.c **** static void usbGenericSetInterrupt(uchar *data, uchar len, usbTxStatus_t *txStatus)
 222:../usbdrv/usbdrv.c **** {
 223:../usbdrv/usbdrv.c **** uchar   *p;
 224:../usbdrv/usbdrv.c **** char    i;
 225:../usbdrv/usbdrv.c **** 
 226:../usbdrv/usbdrv.c **** #if USB_CFG_IMPLEMENT_HALT
 227:../usbdrv/usbdrv.c ****     if(usbTxLen1 == USBPID_STALL)
 228:../usbdrv/usbdrv.c ****         return;
 229:../usbdrv/usbdrv.c **** #endif
 230:../usbdrv/usbdrv.c ****     if(txStatus->len & 0x10){   /* packet buffer was empty */
 231:../usbdrv/usbdrv.c ****         txStatus->buffer[0] ^= USBPID_DATA0 ^ USBPID_DATA1; /* toggle token */
 232:../usbdrv/usbdrv.c ****     }else{
 233:../usbdrv/usbdrv.c ****         txStatus->len = USBPID_NAK; /* avoid sending outdated (overwritten) interrupt data */
 234:../usbdrv/usbdrv.c ****     }
 235:../usbdrv/usbdrv.c ****     p = txStatus->buffer + 1;
 236:../usbdrv/usbdrv.c ****     i = len;
 237:../usbdrv/usbdrv.c ****     do{                         /* if len == 0, we still copy 1 byte, but that's no problem */
 238:../usbdrv/usbdrv.c ****         *p++ = *data++;
 239:../usbdrv/usbdrv.c ****     }while(--i > 0);            /* loop control at the end is 2 bytes shorter than at beginning */
 240:../usbdrv/usbdrv.c ****     usbCrc16Append(&txStatus->buffer[1], len);
 241:../usbdrv/usbdrv.c ****     txStatus->len = len + 4;    /* len must be given including sync byte */
 242:../usbdrv/usbdrv.c ****     DBG2(0x21 + (((int)txStatus >> 3) & 3), txStatus->buffer, len + 3);
 243:../usbdrv/usbdrv.c **** }
 244:../usbdrv/usbdrv.c **** 
 245:../usbdrv/usbdrv.c **** USB_PUBLIC void usbSetInterrupt(uchar *data, uchar len)
 246:../usbdrv/usbdrv.c **** {
  15               		.loc 1 246 0
  16               		.cfi_startproc
  17               	.LVL0:
  18 0000 CF93      		push r28
  19               	.LCFI0:
  20               		.cfi_def_cfa_offset 3
  21               		.cfi_offset 28, -2
  22               	/* prologue: function */
  23               	/* frame size = 0 */
  24               	/* stack size = 1 */
  25               	.L__stack_usage = 1
  26               	.LVL1:
  27               	.LBB24:
  28               	.LBB25:
 227:../usbdrv/usbdrv.c ****         return;
  29               		.loc 1 227 0
  30 0002 2091 0000 		lds r18,usbTxStatus1
  31 0006 2E31      		cpi r18,lo8(30)
  32 0008 01F0      		breq .L1
 230:../usbdrv/usbdrv.c ****         txStatus->buffer[0] ^= USBPID_DATA0 ^ USBPID_DATA1; /* toggle token */
  33               		.loc 1 230 0
  34 000a 2091 0000 		lds r18,usbTxStatus1
  35 000e 24FF      		sbrs r18,4
  36 0010 00C0      		rjmp .L3
 231:../usbdrv/usbdrv.c ****     }else{
  37               		.loc 1 231 0
  38 0012 3091 0000 		lds r19,usbTxStatus1+1
  39 0016 28E8      		ldi r18,lo8(-120)
  40 0018 2327      		eor r18,r19
  41 001a 2093 0000 		sts usbTxStatus1+1,r18
  42               	.L5:
  43 001e FC01      		movw r30,r24
  44 0020 A0E0      		ldi r26,lo8(usbTxStatus1+2)
  45 0022 B0E0      		ldi r27,hi8(usbTxStatus1+2)
  46               	.LBE25:
  47               	.LBE24:
  48               		.loc 1 246 0
  49 0024 862F      		mov r24,r22
  50               	.LVL2:
  51 0026 00C0      		rjmp .L4
  52               	.LVL3:
  53               	.L3:
  54               	.LBB27:
  55               	.LBB26:
 233:../usbdrv/usbdrv.c ****     }
  56               		.loc 1 233 0
  57 0028 2AE5      		ldi r18,lo8(90)
  58 002a 2093 0000 		sts usbTxStatus1,r18
  59 002e 00C0      		rjmp .L5
  60               	.LVL4:
  61               	.L4:
 238:../usbdrv/usbdrv.c ****     }while(--i > 0);            /* loop control at the end is 2 bytes shorter than at beginning */
  62               		.loc 1 238 0
  63 0030 9191      		ld r25,Z+
  64               	.LVL5:
  65 0032 9D93      		st X+,r25
 239:../usbdrv/usbdrv.c ****     usbCrc16Append(&txStatus->buffer[1], len);
  66               		.loc 1 239 0
  67 0034 8150      		subi r24,lo8(-(-1))
  68               	.LVL6:
  69 0036 01F4      		brne .L4
  70 0038 C62F      		mov r28,r22
 240:../usbdrv/usbdrv.c ****     txStatus->len = len + 4;    /* len must be given including sync byte */
  71               		.loc 1 240 0
  72 003a 80E0      		ldi r24,lo8(usbTxStatus1+2)
  73 003c 90E0      		ldi r25,hi8(usbTxStatus1+2)
  74               	.LVL7:
  75 003e 00D0      		rcall usbCrc16Append
  76               	.LVL8:
 241:../usbdrv/usbdrv.c ****     DBG2(0x21 + (((int)txStatus >> 3) & 3), txStatus->buffer, len + 3);
  77               		.loc 1 241 0
  78 0040 CC5F      		subi r28,lo8(-(4))
  79               	.LVL9:
  80 0042 C093 0000 		sts usbTxStatus1,r28
  81               	.LVL10:
  82               	.L1:
  83               	/* epilogue start */
  84               	.LBE26:
  85               	.LBE27:
 247:../usbdrv/usbdrv.c ****     usbGenericSetInterrupt(data, len, &usbTxStatus1);
 248:../usbdrv/usbdrv.c **** }
  86               		.loc 1 248 0
  87 0046 CF91      		pop r28
  88 0048 0895      		ret
  89               		.cfi_endproc
  90               	.LFE5:
  91               		.size	usbSetInterrupt, .-usbSetInterrupt
  92               	.global	usbPoll
  93               		.type	usbPoll, @function
  94               	usbPoll:
  95               	.LFB12:
 249:../usbdrv/usbdrv.c **** #endif
 250:../usbdrv/usbdrv.c **** 
 251:../usbdrv/usbdrv.c **** #if USB_CFG_HAVE_INTRIN_ENDPOINT3
 252:../usbdrv/usbdrv.c **** USB_PUBLIC void usbSetInterrupt3(uchar *data, uchar len)
 253:../usbdrv/usbdrv.c **** {
 254:../usbdrv/usbdrv.c ****     usbGenericSetInterrupt(data, len, &usbTxStatus3);
 255:../usbdrv/usbdrv.c **** }
 256:../usbdrv/usbdrv.c **** #endif
 257:../usbdrv/usbdrv.c **** #endif /* USB_CFG_SUPPRESS_INTR_CODE */
 258:../usbdrv/usbdrv.c **** 
 259:../usbdrv/usbdrv.c **** /* ------------------ utilities for code following below ------------------- */
 260:../usbdrv/usbdrv.c **** 
 261:../usbdrv/usbdrv.c **** /* Use defines for the switch statement so that we can choose between an
 262:../usbdrv/usbdrv.c ****  * if()else if() and a switch/case based implementation. switch() is more
 263:../usbdrv/usbdrv.c ****  * efficient for a LARGE set of sequential choices, if() is better in all other
 264:../usbdrv/usbdrv.c ****  * cases.
 265:../usbdrv/usbdrv.c ****  */
 266:../usbdrv/usbdrv.c **** #if USB_CFG_USE_SWITCH_STATEMENT
 267:../usbdrv/usbdrv.c **** #   define SWITCH_START(cmd)       switch(cmd){{
 268:../usbdrv/usbdrv.c **** #   define SWITCH_CASE(value)      }break; case (value):{
 269:../usbdrv/usbdrv.c **** #   define SWITCH_CASE2(v1,v2)     }break; case (v1): case(v2):{
 270:../usbdrv/usbdrv.c **** #   define SWITCH_CASE3(v1,v2,v3)  }break; case (v1): case(v2): case(v3):{
 271:../usbdrv/usbdrv.c **** #   define SWITCH_DEFAULT          }break; default:{
 272:../usbdrv/usbdrv.c **** #   define SWITCH_END              }}
 273:../usbdrv/usbdrv.c **** #else
 274:../usbdrv/usbdrv.c **** #   define SWITCH_START(cmd)       {uchar _cmd = cmd; if(0){
 275:../usbdrv/usbdrv.c **** #   define SWITCH_CASE(value)      }else if(_cmd == (value)){
 276:../usbdrv/usbdrv.c **** #   define SWITCH_CASE2(v1,v2)     }else if(_cmd == (v1) || _cmd == (v2)){
 277:../usbdrv/usbdrv.c **** #   define SWITCH_CASE3(v1,v2,v3)  }else if(_cmd == (v1) || _cmd == (v2) || (_cmd == v3)){
 278:../usbdrv/usbdrv.c **** #   define SWITCH_DEFAULT          }else{
 279:../usbdrv/usbdrv.c **** #   define SWITCH_END              }}
 280:../usbdrv/usbdrv.c **** #endif
 281:../usbdrv/usbdrv.c **** 
 282:../usbdrv/usbdrv.c **** #ifndef USB_RX_USER_HOOK
 283:../usbdrv/usbdrv.c **** #define USB_RX_USER_HOOK(data, len)
 284:../usbdrv/usbdrv.c **** #endif
 285:../usbdrv/usbdrv.c **** #ifndef USB_SET_ADDRESS_HOOK
 286:../usbdrv/usbdrv.c **** #define USB_SET_ADDRESS_HOOK()
 287:../usbdrv/usbdrv.c **** #endif
 288:../usbdrv/usbdrv.c **** 
 289:../usbdrv/usbdrv.c **** /* ------------------------------------------------------------------------- */
 290:../usbdrv/usbdrv.c **** 
 291:../usbdrv/usbdrv.c **** /* We use if() instead of #if in the macro below because #if can't be used
 292:../usbdrv/usbdrv.c ****  * in macros and the compiler optimizes constant conditions anyway.
 293:../usbdrv/usbdrv.c ****  * This may cause problems with undefined symbols if compiled without
 294:../usbdrv/usbdrv.c ****  * optimizing!
 295:../usbdrv/usbdrv.c ****  */
 296:../usbdrv/usbdrv.c **** #define GET_DESCRIPTOR(cfgProp, staticName)         \
 297:../usbdrv/usbdrv.c ****     if(cfgProp){                                    \
 298:../usbdrv/usbdrv.c ****         if((cfgProp) & USB_PROP_IS_RAM)             \
 299:../usbdrv/usbdrv.c ****             flags = 0;                              \
 300:../usbdrv/usbdrv.c ****         if((cfgProp) & USB_PROP_IS_DYNAMIC){        \
 301:../usbdrv/usbdrv.c ****             len = usbFunctionDescriptor(rq);        \
 302:../usbdrv/usbdrv.c ****         }else{                                      \
 303:../usbdrv/usbdrv.c ****             len = USB_PROP_LENGTH(cfgProp);         \
 304:../usbdrv/usbdrv.c ****             usbMsgPtr = (uchar *)(staticName);      \
 305:../usbdrv/usbdrv.c ****         }                                           \
 306:../usbdrv/usbdrv.c ****     }
 307:../usbdrv/usbdrv.c **** 
 308:../usbdrv/usbdrv.c **** /* usbDriverDescriptor() is similar to usbFunctionDescriptor(), but used
 309:../usbdrv/usbdrv.c ****  * internally for all types of descriptors.
 310:../usbdrv/usbdrv.c ****  */
 311:../usbdrv/usbdrv.c **** static inline usbMsgLen_t usbDriverDescriptor(usbRequest_t *rq)
 312:../usbdrv/usbdrv.c **** {
 313:../usbdrv/usbdrv.c **** usbMsgLen_t len = 0;
 314:../usbdrv/usbdrv.c **** uchar       flags = USB_FLG_MSGPTR_IS_ROM;
 315:../usbdrv/usbdrv.c **** 
 316:../usbdrv/usbdrv.c ****     SWITCH_START(rq->wValue.bytes[1])
 317:../usbdrv/usbdrv.c ****     SWITCH_CASE(USBDESCR_DEVICE)    /* 1 */
 318:../usbdrv/usbdrv.c ****         GET_DESCRIPTOR(USB_CFG_DESCR_PROPS_DEVICE, usbDescriptorDevice)
 319:../usbdrv/usbdrv.c ****     SWITCH_CASE(USBDESCR_CONFIG)    /* 2 */
 320:../usbdrv/usbdrv.c ****         GET_DESCRIPTOR(USB_CFG_DESCR_PROPS_CONFIGURATION, usbDescriptorConfiguration)
 321:../usbdrv/usbdrv.c ****     SWITCH_CASE(USBDESCR_STRING)    /* 3 */
 322:../usbdrv/usbdrv.c **** #if USB_CFG_DESCR_PROPS_STRINGS & USB_PROP_IS_DYNAMIC
 323:../usbdrv/usbdrv.c ****         if(USB_CFG_DESCR_PROPS_STRINGS & USB_PROP_IS_RAM)
 324:../usbdrv/usbdrv.c ****             flags = 0;
 325:../usbdrv/usbdrv.c ****         len = usbFunctionDescriptor(rq);
 326:../usbdrv/usbdrv.c **** #else   /* USB_CFG_DESCR_PROPS_STRINGS & USB_PROP_IS_DYNAMIC */
 327:../usbdrv/usbdrv.c ****         SWITCH_START(rq->wValue.bytes[0])
 328:../usbdrv/usbdrv.c ****         SWITCH_CASE(0)
 329:../usbdrv/usbdrv.c ****             GET_DESCRIPTOR(USB_CFG_DESCR_PROPS_STRING_0, usbDescriptorString0)
 330:../usbdrv/usbdrv.c ****         SWITCH_CASE(1)
 331:../usbdrv/usbdrv.c ****             GET_DESCRIPTOR(USB_CFG_DESCR_PROPS_STRING_VENDOR, usbDescriptorStringVendor)
 332:../usbdrv/usbdrv.c ****         SWITCH_CASE(2)
 333:../usbdrv/usbdrv.c ****             GET_DESCRIPTOR(USB_CFG_DESCR_PROPS_STRING_PRODUCT, usbDescriptorStringDevice)
 334:../usbdrv/usbdrv.c ****         SWITCH_CASE(3)
 335:../usbdrv/usbdrv.c ****             GET_DESCRIPTOR(USB_CFG_DESCR_PROPS_STRING_SERIAL_NUMBER, usbDescriptorStringSerialNumbe
 336:../usbdrv/usbdrv.c ****         SWITCH_DEFAULT
 337:../usbdrv/usbdrv.c ****             if(USB_CFG_DESCR_PROPS_UNKNOWN & USB_PROP_IS_DYNAMIC){
 338:../usbdrv/usbdrv.c ****                 len = usbFunctionDescriptor(rq);
 339:../usbdrv/usbdrv.c ****             }
 340:../usbdrv/usbdrv.c ****         SWITCH_END
 341:../usbdrv/usbdrv.c **** #endif  /* USB_CFG_DESCR_PROPS_STRINGS & USB_PROP_IS_DYNAMIC */
 342:../usbdrv/usbdrv.c **** #if USB_CFG_DESCR_PROPS_HID_REPORT  /* only support HID descriptors if enabled */
 343:../usbdrv/usbdrv.c ****     SWITCH_CASE(USBDESCR_HID)       /* 0x21 */
 344:../usbdrv/usbdrv.c ****         GET_DESCRIPTOR(USB_CFG_DESCR_PROPS_HID, usbDescriptorConfiguration + 18)
 345:../usbdrv/usbdrv.c ****     SWITCH_CASE(USBDESCR_HID_REPORT)/* 0x22 */
 346:../usbdrv/usbdrv.c ****         GET_DESCRIPTOR(USB_CFG_DESCR_PROPS_HID_REPORT, usbDescriptorHidReport)
 347:../usbdrv/usbdrv.c **** #endif
 348:../usbdrv/usbdrv.c ****     SWITCH_DEFAULT
 349:../usbdrv/usbdrv.c ****         if(USB_CFG_DESCR_PROPS_UNKNOWN & USB_PROP_IS_DYNAMIC){
 350:../usbdrv/usbdrv.c ****             len = usbFunctionDescriptor(rq);
 351:../usbdrv/usbdrv.c ****         }
 352:../usbdrv/usbdrv.c ****     SWITCH_END
 353:../usbdrv/usbdrv.c ****     usbMsgFlags = flags;
 354:../usbdrv/usbdrv.c ****     return len;
 355:../usbdrv/usbdrv.c **** }
 356:../usbdrv/usbdrv.c **** 
 357:../usbdrv/usbdrv.c **** /* ------------------------------------------------------------------------- */
 358:../usbdrv/usbdrv.c **** 
 359:../usbdrv/usbdrv.c **** /* usbDriverSetup() is similar to usbFunctionSetup(), but it's used for
 360:../usbdrv/usbdrv.c ****  * standard requests instead of class and custom requests.
 361:../usbdrv/usbdrv.c ****  */
 362:../usbdrv/usbdrv.c **** static inline usbMsgLen_t usbDriverSetup(usbRequest_t *rq)
 363:../usbdrv/usbdrv.c **** {
 364:../usbdrv/usbdrv.c **** uchar   len  = 0, *dataPtr = usbTxBuf + 9;  /* there are 2 bytes free space at the end of the buffe
 365:../usbdrv/usbdrv.c **** uchar   value = rq->wValue.bytes[0];
 366:../usbdrv/usbdrv.c **** #if USB_CFG_IMPLEMENT_HALT
 367:../usbdrv/usbdrv.c **** uchar   index = rq->wIndex.bytes[0];
 368:../usbdrv/usbdrv.c **** #endif
 369:../usbdrv/usbdrv.c **** 
 370:../usbdrv/usbdrv.c ****     dataPtr[0] = 0; /* default reply common to USBRQ_GET_STATUS and USBRQ_GET_INTERFACE */
 371:../usbdrv/usbdrv.c ****     SWITCH_START(rq->bRequest)
 372:../usbdrv/usbdrv.c ****     SWITCH_CASE(USBRQ_GET_STATUS)           /* 0 */
 373:../usbdrv/usbdrv.c ****         uchar recipient = rq->bmRequestType & USBRQ_RCPT_MASK;  /* assign arith ops to variables to
 374:../usbdrv/usbdrv.c ****         if(USB_CFG_IS_SELF_POWERED && recipient == USBRQ_RCPT_DEVICE)
 375:../usbdrv/usbdrv.c ****             dataPtr[0] =  USB_CFG_IS_SELF_POWERED;
 376:../usbdrv/usbdrv.c **** #if USB_CFG_IMPLEMENT_HALT
 377:../usbdrv/usbdrv.c ****         if(recipient == USBRQ_RCPT_ENDPOINT && index == 0x81)   /* request status for endpoint 1 */
 378:../usbdrv/usbdrv.c ****             dataPtr[0] = usbTxLen1 == USBPID_STALL;
 379:../usbdrv/usbdrv.c **** #endif
 380:../usbdrv/usbdrv.c ****         dataPtr[1] = 0;
 381:../usbdrv/usbdrv.c ****         len = 2;
 382:../usbdrv/usbdrv.c **** #if USB_CFG_IMPLEMENT_HALT
 383:../usbdrv/usbdrv.c ****     SWITCH_CASE2(USBRQ_CLEAR_FEATURE, USBRQ_SET_FEATURE)    /* 1, 3 */
 384:../usbdrv/usbdrv.c ****         if(value == 0 && index == 0x81){    /* feature 0 == HALT for endpoint == 1 */
 385:../usbdrv/usbdrv.c ****             usbTxLen1 = rq->bRequest == USBRQ_CLEAR_FEATURE ? USBPID_NAK : USBPID_STALL;
 386:../usbdrv/usbdrv.c ****             usbResetDataToggling();
 387:../usbdrv/usbdrv.c ****         }
 388:../usbdrv/usbdrv.c **** #endif
 389:../usbdrv/usbdrv.c ****     SWITCH_CASE(USBRQ_SET_ADDRESS)          /* 5 */
 390:../usbdrv/usbdrv.c ****         usbNewDeviceAddr = value;
 391:../usbdrv/usbdrv.c ****         USB_SET_ADDRESS_HOOK();
 392:../usbdrv/usbdrv.c ****     SWITCH_CASE(USBRQ_GET_DESCRIPTOR)       /* 6 */
 393:../usbdrv/usbdrv.c ****         len = usbDriverDescriptor(rq);
 394:../usbdrv/usbdrv.c ****         goto skipMsgPtrAssignment;
 395:../usbdrv/usbdrv.c ****     SWITCH_CASE(USBRQ_GET_CONFIGURATION)    /* 8 */
 396:../usbdrv/usbdrv.c ****         dataPtr = &usbConfiguration;  /* send current configuration value */
 397:../usbdrv/usbdrv.c ****         len = 1;
 398:../usbdrv/usbdrv.c ****     SWITCH_CASE(USBRQ_SET_CONFIGURATION)    /* 9 */
 399:../usbdrv/usbdrv.c ****         usbConfiguration = value;
 400:../usbdrv/usbdrv.c ****         usbResetStall();
 401:../usbdrv/usbdrv.c ****     SWITCH_CASE(USBRQ_GET_INTERFACE)        /* 10 */
 402:../usbdrv/usbdrv.c ****         len = 1;
 403:../usbdrv/usbdrv.c **** #if USB_CFG_HAVE_INTRIN_ENDPOINT && !USB_CFG_SUPPRESS_INTR_CODE
 404:../usbdrv/usbdrv.c ****     SWITCH_CASE(USBRQ_SET_INTERFACE)        /* 11 */
 405:../usbdrv/usbdrv.c ****         usbResetDataToggling();
 406:../usbdrv/usbdrv.c ****         usbResetStall();
 407:../usbdrv/usbdrv.c **** #endif
 408:../usbdrv/usbdrv.c ****     SWITCH_DEFAULT                          /* 7=SET_DESCRIPTOR, 12=SYNC_FRAME */
 409:../usbdrv/usbdrv.c ****         /* Should we add an optional hook here? */
 410:../usbdrv/usbdrv.c ****     SWITCH_END
 411:../usbdrv/usbdrv.c ****     usbMsgPtr = dataPtr;
 412:../usbdrv/usbdrv.c **** skipMsgPtrAssignment:
 413:../usbdrv/usbdrv.c ****     return len;
 414:../usbdrv/usbdrv.c **** }
 415:../usbdrv/usbdrv.c **** 
 416:../usbdrv/usbdrv.c **** /* ------------------------------------------------------------------------- */
 417:../usbdrv/usbdrv.c **** 
 418:../usbdrv/usbdrv.c **** /* usbProcessRx() is called for every message received by the interrupt
 419:../usbdrv/usbdrv.c ****  * routine. It distinguishes between SETUP and DATA packets and processes
 420:../usbdrv/usbdrv.c ****  * them accordingly.
 421:../usbdrv/usbdrv.c ****  */
 422:../usbdrv/usbdrv.c **** static inline void usbProcessRx(uchar *data, uchar len)
 423:../usbdrv/usbdrv.c **** {
 424:../usbdrv/usbdrv.c **** usbRequest_t    *rq = (void *)data;
 425:../usbdrv/usbdrv.c **** 
 426:../usbdrv/usbdrv.c **** /* usbRxToken can be:
 427:../usbdrv/usbdrv.c ****  * 0x2d 00101101 (USBPID_SETUP for setup data)
 428:../usbdrv/usbdrv.c ****  * 0xe1 11100001 (USBPID_OUT: data phase of setup transfer)
 429:../usbdrv/usbdrv.c ****  * 0...0x0f for OUT on endpoint X
 430:../usbdrv/usbdrv.c ****  */
 431:../usbdrv/usbdrv.c ****     DBG2(0x10 + (usbRxToken & 0xf), data, len + 2); /* SETUP=1d, SETUP-DATA=11, OUTx=1x */
 432:../usbdrv/usbdrv.c ****     USB_RX_USER_HOOK(data, len)
 433:../usbdrv/usbdrv.c **** #if USB_CFG_IMPLEMENT_FN_WRITEOUT
 434:../usbdrv/usbdrv.c ****     if(usbRxToken < 0x10){  /* OUT to endpoint != 0: endpoint number in usbRxToken */
 435:../usbdrv/usbdrv.c ****         usbFunctionWriteOut(data, len);
 436:../usbdrv/usbdrv.c ****         return;
 437:../usbdrv/usbdrv.c ****     }
 438:../usbdrv/usbdrv.c **** #endif
 439:../usbdrv/usbdrv.c ****     if(usbRxToken == (uchar)USBPID_SETUP){
 440:../usbdrv/usbdrv.c ****         if(len != 8)    /* Setup size must be always 8 bytes. Ignore otherwise. */
 441:../usbdrv/usbdrv.c ****             return;
 442:../usbdrv/usbdrv.c ****         usbMsgLen_t replyLen;
 443:../usbdrv/usbdrv.c ****         usbTxBuf[0] = USBPID_DATA0;         /* initialize data toggling */
 444:../usbdrv/usbdrv.c ****         usbTxLen = USBPID_NAK;              /* abort pending transmit */
 445:../usbdrv/usbdrv.c ****         usbMsgFlags = 0;
 446:../usbdrv/usbdrv.c ****         uchar type = rq->bmRequestType & USBRQ_TYPE_MASK;
 447:../usbdrv/usbdrv.c ****         if(type != USBRQ_TYPE_STANDARD){    /* standard requests are handled by driver */
 448:../usbdrv/usbdrv.c ****             replyLen = usbFunctionSetup(data);
 449:../usbdrv/usbdrv.c ****         }else{
 450:../usbdrv/usbdrv.c ****             replyLen = usbDriverSetup(rq);
 451:../usbdrv/usbdrv.c ****         }
 452:../usbdrv/usbdrv.c **** #if USB_CFG_IMPLEMENT_FN_READ || USB_CFG_IMPLEMENT_FN_WRITE
 453:../usbdrv/usbdrv.c ****         if(replyLen == USB_NO_MSG){         /* use user-supplied read/write function */
 454:../usbdrv/usbdrv.c ****             /* do some conditioning on replyLen, but on IN transfers only */
 455:../usbdrv/usbdrv.c ****             if((rq->bmRequestType & USBRQ_DIR_MASK) != USBRQ_DIR_HOST_TO_DEVICE){
 456:../usbdrv/usbdrv.c ****                 if(sizeof(replyLen) < sizeof(rq->wLength.word)){ /* help compiler with optimizing *
 457:../usbdrv/usbdrv.c ****                     replyLen = rq->wLength.bytes[0];
 458:../usbdrv/usbdrv.c ****                 }else{
 459:../usbdrv/usbdrv.c ****                     replyLen = rq->wLength.word;
 460:../usbdrv/usbdrv.c ****                 }
 461:../usbdrv/usbdrv.c ****             }
 462:../usbdrv/usbdrv.c ****             usbMsgFlags = USB_FLG_USE_USER_RW;
 463:../usbdrv/usbdrv.c ****         }else   /* The 'else' prevents that we limit a replyLen of USB_NO_MSG to the maximum transf
 464:../usbdrv/usbdrv.c **** #endif
 465:../usbdrv/usbdrv.c ****         if(sizeof(replyLen) < sizeof(rq->wLength.word)){ /* help compiler with optimizing */
 466:../usbdrv/usbdrv.c ****             if(!rq->wLength.bytes[1] && replyLen > rq->wLength.bytes[0])    /* limit length to max 
 467:../usbdrv/usbdrv.c ****                 replyLen = rq->wLength.bytes[0];
 468:../usbdrv/usbdrv.c ****         }else{
 469:../usbdrv/usbdrv.c ****             if(replyLen > rq->wLength.word)     /* limit length to max */
 470:../usbdrv/usbdrv.c ****                 replyLen = rq->wLength.word;
 471:../usbdrv/usbdrv.c ****         }
 472:../usbdrv/usbdrv.c ****         usbMsgLen = replyLen;
 473:../usbdrv/usbdrv.c ****     }else{  /* usbRxToken must be USBPID_OUT, which means data phase of setup (control-out) */
 474:../usbdrv/usbdrv.c **** #if USB_CFG_IMPLEMENT_FN_WRITE
 475:../usbdrv/usbdrv.c ****         if(usbMsgFlags & USB_FLG_USE_USER_RW){
 476:../usbdrv/usbdrv.c ****             uchar rval = usbFunctionWrite(data, len);
 477:../usbdrv/usbdrv.c ****             if(rval == 0xff){   /* an error occurred */
 478:../usbdrv/usbdrv.c ****                 usbTxLen = USBPID_STALL;
 479:../usbdrv/usbdrv.c ****             }else if(rval != 0){    /* This was the final package */
 480:../usbdrv/usbdrv.c ****                 usbMsgLen = 0;  /* answer with a zero-sized data packet */
 481:../usbdrv/usbdrv.c ****             }
 482:../usbdrv/usbdrv.c ****         }
 483:../usbdrv/usbdrv.c **** #endif
 484:../usbdrv/usbdrv.c ****     }
 485:../usbdrv/usbdrv.c **** }
 486:../usbdrv/usbdrv.c **** 
 487:../usbdrv/usbdrv.c **** /* ------------------------------------------------------------------------- */
 488:../usbdrv/usbdrv.c **** 
 489:../usbdrv/usbdrv.c **** /* This function is similar to usbFunctionRead(), but it's also called for
 490:../usbdrv/usbdrv.c ****  * data handled automatically by the driver (e.g. descriptor reads).
 491:../usbdrv/usbdrv.c ****  */
 492:../usbdrv/usbdrv.c **** static uchar usbDeviceRead(uchar *data, uchar len)
 493:../usbdrv/usbdrv.c **** {
 494:../usbdrv/usbdrv.c ****     if(len > 0){    /* don't bother app with 0 sized reads */
 495:../usbdrv/usbdrv.c **** #if USB_CFG_IMPLEMENT_FN_READ
 496:../usbdrv/usbdrv.c ****         if(usbMsgFlags & USB_FLG_USE_USER_RW){
 497:../usbdrv/usbdrv.c ****             len = usbFunctionRead(data, len);
 498:../usbdrv/usbdrv.c ****         }else
 499:../usbdrv/usbdrv.c **** #endif
 500:../usbdrv/usbdrv.c ****         {
 501:../usbdrv/usbdrv.c ****             uchar i = len, *r = usbMsgPtr;
 502:../usbdrv/usbdrv.c ****             if(usbMsgFlags & USB_FLG_MSGPTR_IS_ROM){    /* ROM data */
 503:../usbdrv/usbdrv.c ****                 do{
 504:../usbdrv/usbdrv.c ****                     uchar c = USB_READ_FLASH(r);    /* assign to char size variable to enforce byte
 505:../usbdrv/usbdrv.c ****                     *data++ = c;
 506:../usbdrv/usbdrv.c ****                     r++;
 507:../usbdrv/usbdrv.c ****                 }while(--i);
 508:../usbdrv/usbdrv.c ****             }else{  /* RAM data */
 509:../usbdrv/usbdrv.c ****                 do{
 510:../usbdrv/usbdrv.c ****                     *data++ = *r++;
 511:../usbdrv/usbdrv.c ****                 }while(--i);
 512:../usbdrv/usbdrv.c ****             }
 513:../usbdrv/usbdrv.c ****             usbMsgPtr = r;
 514:../usbdrv/usbdrv.c ****         }
 515:../usbdrv/usbdrv.c ****     }
 516:../usbdrv/usbdrv.c ****     return len;
 517:../usbdrv/usbdrv.c **** }
 518:../usbdrv/usbdrv.c **** 
 519:../usbdrv/usbdrv.c **** /* ------------------------------------------------------------------------- */
 520:../usbdrv/usbdrv.c **** 
 521:../usbdrv/usbdrv.c **** /* usbBuildTxBlock() is called when we have data to transmit and the
 522:../usbdrv/usbdrv.c ****  * interrupt routine's transmit buffer is empty.
 523:../usbdrv/usbdrv.c ****  */
 524:../usbdrv/usbdrv.c **** static inline void usbBuildTxBlock(void)
 525:../usbdrv/usbdrv.c **** {
 526:../usbdrv/usbdrv.c **** usbMsgLen_t wantLen;
 527:../usbdrv/usbdrv.c **** uchar       len;
 528:../usbdrv/usbdrv.c **** 
 529:../usbdrv/usbdrv.c ****     wantLen = usbMsgLen;
 530:../usbdrv/usbdrv.c ****     if(wantLen > 8)
 531:../usbdrv/usbdrv.c ****         wantLen = 8;
 532:../usbdrv/usbdrv.c ****     usbMsgLen -= wantLen;
 533:../usbdrv/usbdrv.c ****     usbTxBuf[0] ^= USBPID_DATA0 ^ USBPID_DATA1; /* DATA toggling */
 534:../usbdrv/usbdrv.c ****     len = usbDeviceRead(usbTxBuf + 1, wantLen);
 535:../usbdrv/usbdrv.c ****     if(len <= 8){           /* valid data packet */
 536:../usbdrv/usbdrv.c ****         usbCrc16Append(&usbTxBuf[1], len);
 537:../usbdrv/usbdrv.c ****         len += 4;           /* length including sync byte */
 538:../usbdrv/usbdrv.c ****         if(len < 12)        /* a partial package identifies end of message */
 539:../usbdrv/usbdrv.c ****             usbMsgLen = USB_NO_MSG;
 540:../usbdrv/usbdrv.c ****     }else{
 541:../usbdrv/usbdrv.c ****         len = USBPID_STALL;   /* stall the endpoint */
 542:../usbdrv/usbdrv.c ****         usbMsgLen = USB_NO_MSG;
 543:../usbdrv/usbdrv.c ****     }
 544:../usbdrv/usbdrv.c ****     usbTxLen = len;
 545:../usbdrv/usbdrv.c ****     DBG2(0x20, usbTxBuf, len-1);
 546:../usbdrv/usbdrv.c **** }
 547:../usbdrv/usbdrv.c **** 
 548:../usbdrv/usbdrv.c **** /* ------------------------------------------------------------------------- */
 549:../usbdrv/usbdrv.c **** 
 550:../usbdrv/usbdrv.c **** static inline void usbHandleResetHook(uchar notResetState)
 551:../usbdrv/usbdrv.c **** {
 552:../usbdrv/usbdrv.c **** #ifdef USB_RESET_HOOK
 553:../usbdrv/usbdrv.c **** static uchar    wasReset;
 554:../usbdrv/usbdrv.c **** uchar           isReset = !notResetState;
 555:../usbdrv/usbdrv.c **** 
 556:../usbdrv/usbdrv.c ****     if(wasReset != isReset){
 557:../usbdrv/usbdrv.c ****         USB_RESET_HOOK(isReset);
 558:../usbdrv/usbdrv.c ****         wasReset = isReset;
 559:../usbdrv/usbdrv.c ****     }
 560:../usbdrv/usbdrv.c **** #endif
 561:../usbdrv/usbdrv.c **** }
 562:../usbdrv/usbdrv.c **** 
 563:../usbdrv/usbdrv.c **** /* ------------------------------------------------------------------------- */
 564:../usbdrv/usbdrv.c **** 
 565:../usbdrv/usbdrv.c **** USB_PUBLIC void usbPoll(void)
 566:../usbdrv/usbdrv.c **** {
  96               		.loc 1 566 0
  97               		.cfi_startproc
  98 004a CF93      		push r28
  99               	.LCFI1:
 100               		.cfi_def_cfa_offset 3
 101               		.cfi_offset 28, -2
 102 004c DF93      		push r29
 103               	.LCFI2:
 104               		.cfi_def_cfa_offset 4
 105               		.cfi_offset 29, -3
 106               	/* prologue: function */
 107               	/* frame size = 0 */
 108               	/* stack size = 2 */
 109               	.L__stack_usage = 2
 567:../usbdrv/usbdrv.c **** schar   len;
 568:../usbdrv/usbdrv.c **** uchar   i;
 569:../usbdrv/usbdrv.c **** 
 570:../usbdrv/usbdrv.c ****     len = usbRxLen - 3;
 110               		.loc 1 570 0
 111 004e 6091 0000 		lds r22,usbRxLen
 112 0052 6350      		subi r22,lo8(-(-3))
 113               	.LVL11:
 571:../usbdrv/usbdrv.c ****     if(len >= 0){
 114               		.loc 1 571 0
 115 0054 67FD      		sbrc r22,7
 116 0056 00C0      		rjmp .L12
 572:../usbdrv/usbdrv.c **** /* We could check CRC16 here -- but ACK has already been sent anyway. If you
 573:../usbdrv/usbdrv.c ****  * need data integrity checks with this driver, check the CRC in your app
 574:../usbdrv/usbdrv.c ****  * code and report errors back to the host. Since the ACK was already sent,
 575:../usbdrv/usbdrv.c ****  * retries must be handled on application level.
 576:../usbdrv/usbdrv.c ****  * unsigned crc = usbCrc16(buffer + 1, usbRxLen - 3);
 577:../usbdrv/usbdrv.c ****  */
 578:../usbdrv/usbdrv.c ****         usbProcessRx(usbRxBuf + USB_BUFSIZE + 1 - usbInputBufOffset, len);
 117               		.loc 1 578 0
 118 0058 8091 0000 		lds r24,usbInputBufOffset
 119 005c CCE0      		ldi r28,lo8(12)
 120 005e D0E0      		ldi r29,0
 121 0060 C81B      		sub r28,r24
 122 0062 D109      		sbc r29,__zero_reg__
 123 0064 C050      		subi r28,lo8(-(usbRxBuf))
 124 0066 D040      		sbci r29,hi8(-(usbRxBuf))
 125               	.LVL12:
 126               	.LBB60:
 127               	.LBB61:
 439:../usbdrv/usbdrv.c ****         if(len != 8)    /* Setup size must be always 8 bytes. Ignore otherwise. */
 128               		.loc 1 439 0
 129 0068 8091 0000 		lds r24,usbRxToken
 130 006c 8D32      		cpi r24,lo8(45)
 131 006e 01F0      		breq .+2
 132 0070 00C0      		rjmp .L13
 133               	.LBB62:
 440:../usbdrv/usbdrv.c ****             return;
 134               		.loc 1 440 0
 135 0072 6830      		cpi r22,lo8(8)
 136 0074 01F0      		breq .+2
 137 0076 00C0      		rjmp .L15
 443:../usbdrv/usbdrv.c ****         usbTxLen = USBPID_NAK;              /* abort pending transmit */
 138               		.loc 1 443 0
 139 0078 83EC      		ldi r24,lo8(-61)
 140 007a 8093 0000 		sts usbTxBuf,r24
 444:../usbdrv/usbdrv.c ****         usbMsgFlags = 0;
 141               		.loc 1 444 0
 142 007e 8AE5      		ldi r24,lo8(90)
 143 0080 8093 0000 		sts usbTxLen,r24
 445:../usbdrv/usbdrv.c ****         uchar type = rq->bmRequestType & USBRQ_TYPE_MASK;
 144               		.loc 1 445 0
 145 0084 1092 0000 		sts usbMsgFlags,__zero_reg__
 446:../usbdrv/usbdrv.c ****         if(type != USBRQ_TYPE_STANDARD){    /* standard requests are handled by driver */
 146               		.loc 1 446 0
 147 0088 2881      		ld r18,Y
 148               	.LVL13:
 447:../usbdrv/usbdrv.c ****             replyLen = usbFunctionSetup(data);
 149               		.loc 1 447 0
 150 008a 822F      		mov r24,r18
 151 008c 8076      		andi r24,lo8(96)
 152               	.LVL14:
 153 008e 01F0      		breq .L16
 448:../usbdrv/usbdrv.c ****         }else{
 154               		.loc 1 448 0
 155 0090 CE01      		movw r24,r28
 156               	.LVL15:
 157 0092 00D0      		rcall usbFunctionSetup
 158               	.LVL16:
 453:../usbdrv/usbdrv.c ****             /* do some conditioning on replyLen, but on IN transfers only */
 159               		.loc 1 453 0
 160 0094 8F3F      		cpi r24,lo8(-1)
 161 0096 01F4      		brne .+2
 162 0098 00C0      		rjmp .L17
 163 009a 00C0      		rjmp .L18
 164               	.LVL17:
 165               	.L16:
 166               	.LBB63:
 167               	.LBB64:
 365:../usbdrv/usbdrv.c **** #if USB_CFG_IMPLEMENT_HALT
 168               		.loc 1 365 0
 169 009c 9A81      		ldd r25,Y+2
 170               	.LVL18:
 367:../usbdrv/usbdrv.c **** #endif
 171               		.loc 1 367 0
 172 009e 3C81      		ldd r19,Y+4
 173               	.LVL19:
 370:../usbdrv/usbdrv.c ****     SWITCH_START(rq->bRequest)
 174               		.loc 1 370 0
 175 00a0 1092 0000 		sts usbTxBuf+9,__zero_reg__
 176               	.LBB65:
 371:../usbdrv/usbdrv.c ****     SWITCH_CASE(USBRQ_GET_STATUS)           /* 0 */
 177               		.loc 1 371 0
 178 00a4 8981      		ldd r24,Y+1
 179               	.LVL20:
 372:../usbdrv/usbdrv.c ****         uchar recipient = rq->bmRequestType & USBRQ_RCPT_MASK;  /* assign arith ops to variables to
 180               		.loc 1 372 0
 181 00a6 8111      		cpse r24,__zero_reg__
 182 00a8 00C0      		rjmp .L19
 183               	.LVL21:
 184               	.LBB66:
 377:../usbdrv/usbdrv.c ****             dataPtr[0] = usbTxLen1 == USBPID_STALL;
 185               		.loc 1 377 0
 186 00aa 2F71      		andi r18,lo8(31)
 187               	.LVL22:
 188 00ac 2230      		cpi r18,lo8(2)
 189 00ae 01F4      		brne .L20
 190 00b0 3138      		cpi r19,lo8(-127)
 191 00b2 01F4      		brne .L20
 378:../usbdrv/usbdrv.c **** #endif
 192               		.loc 1 378 0
 193 00b4 9091 0000 		lds r25,usbTxStatus1
 194               	.LVL23:
 195 00b8 81E0      		ldi r24,lo8(1)
 196               	.LVL24:
 197 00ba 9E31      		cpi r25,lo8(30)
 198 00bc 01F0      		breq .L21
 199 00be 80E0      		ldi r24,0
 200               	.L21:
 201 00c0 8093 0000 		sts usbTxBuf+9,r24
 202               	.L20:
 380:../usbdrv/usbdrv.c ****         len = 2;
 203               		.loc 1 380 0
 204 00c4 1092 0000 		sts usbTxBuf+10,__zero_reg__
 205               	.LVL25:
 206               	.LBE66:
 207               	.LBE65:
 364:../usbdrv/usbdrv.c **** uchar   value = rq->wValue.bytes[0];
 208               		.loc 1 364 0
 209 00c8 20E0      		ldi r18,lo8(usbTxBuf+9)
 210 00ca 30E0      		ldi r19,hi8(usbTxBuf+9)
 211               	.LVL26:
 212               	.LBB78:
 213               	.LBB67:
 381:../usbdrv/usbdrv.c **** #if USB_CFG_IMPLEMENT_HALT
 214               		.loc 1 381 0
 215 00cc 82E0      		ldi r24,lo8(2)
 216 00ce 00C0      		rjmp .L22
 217               	.LVL27:
 218               	.L19:
 219               	.LBE67:
 383:../usbdrv/usbdrv.c ****         if(value == 0 && index == 0x81){    /* feature 0 == HALT for endpoint == 1 */
 220               		.loc 1 383 0
 221 00d0 282F      		mov r18,r24
 222               	.LVL28:
 223 00d2 2D7F      		andi r18,lo8(-3)
 224 00d4 2130      		cpi r18,lo8(1)
 225 00d6 01F4      		brne .L23
 384:../usbdrv/usbdrv.c ****             usbTxLen1 = rq->bRequest == USBRQ_CLEAR_FEATURE ? USBPID_NAK : USBPID_STALL;
 226               		.loc 1 384 0
 227 00d8 9111      		cpse r25,__zero_reg__
 228 00da 00C0      		rjmp .L65
 229 00dc 3138      		cpi r19,lo8(-127)
 230 00de 01F0      		breq .+2
 231 00e0 00C0      		rjmp .L65
 385:../usbdrv/usbdrv.c ****             usbResetDataToggling();
 232               		.loc 1 385 0
 233 00e2 8130      		cpi r24,lo8(1)
 234 00e4 01F0      		breq .L60
 235 00e6 8EE1      		ldi r24,lo8(30)
 236               	.LVL29:
 237 00e8 00C0      		rjmp .L24
 238               	.LVL30:
 239               	.L60:
 240 00ea 8AE5      		ldi r24,lo8(90)
 241               	.LVL31:
 242               	.L24:
 243 00ec 8093 0000 		sts usbTxStatus1,r24
 244               	.LBB68:
 245               	.LBB69:
 200:../usbdrv/usbdrv.c **** #   if USB_CFG_HAVE_INTRIN_ENDPOINT3
 246               		.loc 1 200 0
 247 00f0 8BE4      		ldi r24,lo8(75)
 248 00f2 8093 0000 		sts usbTxStatus1+1,r24
 249 00f6 00C0      		rjmp .L65
 250               	.LVL32:
 251               	.L23:
 252               	.LBE69:
 253               	.LBE68:
 389:../usbdrv/usbdrv.c ****         usbNewDeviceAddr = value;
 254               		.loc 1 389 0
 255 00f8 8530      		cpi r24,lo8(5)
 256 00fa 01F4      		brne .L25
 390:../usbdrv/usbdrv.c ****         USB_SET_ADDRESS_HOOK();
 257               		.loc 1 390 0
 258 00fc 9093 0000 		sts usbNewDeviceAddr,r25
 259 0100 00C0      		rjmp .L65
 260               	.L25:
 392:../usbdrv/usbdrv.c ****         len = usbDriverDescriptor(rq);
 261               		.loc 1 392 0
 262 0102 8630      		cpi r24,lo8(6)
 263 0104 01F0      		breq .+2
 264 0106 00C0      		rjmp .L26
 265 0108 8B81      		ldd r24,Y+3
 266               	.LVL33:
 267               	.LBB70:
 268               	.LBB71:
 269               	.LBB72:
 317:../usbdrv/usbdrv.c ****         GET_DESCRIPTOR(USB_CFG_DESCR_PROPS_DEVICE, usbDescriptorDevice)
 270               		.loc 1 317 0
 271 010a 8130      		cpi r24,lo8(1)
 272 010c 01F4      		brne .L27
 273               	.LVL34:
 318:../usbdrv/usbdrv.c ****     SWITCH_CASE(USBDESCR_CONFIG)    /* 2 */
 274               		.loc 1 318 0
 275 010e 80E0      		ldi r24,lo8(usbDescriptorDevice)
 276 0110 90E0      		ldi r25,hi8(usbDescriptorDevice)
 277               	.LVL35:
 278 0112 9093 0000 		sts usbMsgPtr+1,r25
 279 0116 8093 0000 		sts usbMsgPtr,r24
 280 011a 82E1      		ldi r24,lo8(18)
 281 011c 00C0      		rjmp .L28
 282               	.LVL36:
 283               	.L27:
 319:../usbdrv/usbdrv.c ****         GET_DESCRIPTOR(USB_CFG_DESCR_PROPS_CONFIGURATION, usbDescriptorConfiguration)
 284               		.loc 1 319 0
 285 011e 8230      		cpi r24,lo8(2)
 286 0120 01F4      		brne .L29
 287               	.LVL37:
 320:../usbdrv/usbdrv.c ****     SWITCH_CASE(USBDESCR_STRING)    /* 3 */
 288               		.loc 1 320 0
 289 0122 80E0      		ldi r24,lo8(usbDescriptorConfiguration)
 290 0124 90E0      		ldi r25,hi8(usbDescriptorConfiguration)
 291               	.LVL38:
 292 0126 9093 0000 		sts usbMsgPtr+1,r25
 293 012a 8093 0000 		sts usbMsgPtr,r24
 294 012e 82E2      		ldi r24,lo8(34)
 295 0130 00C0      		rjmp .L28
 296               	.LVL39:
 297               	.L29:
 321:../usbdrv/usbdrv.c **** #if USB_CFG_DESCR_PROPS_STRINGS & USB_PROP_IS_DYNAMIC
 298               		.loc 1 321 0
 299 0132 8330      		cpi r24,lo8(3)
 300 0134 01F4      		brne .L30
 301               	.LVL40:
 302               	.LBB73:
 328:../usbdrv/usbdrv.c ****             GET_DESCRIPTOR(USB_CFG_DESCR_PROPS_STRING_0, usbDescriptorString0)
 303               		.loc 1 328 0
 304 0136 9111      		cpse r25,__zero_reg__
 305 0138 00C0      		rjmp .L31
 306               	.LVL41:
 329:../usbdrv/usbdrv.c ****         SWITCH_CASE(1)
 307               		.loc 1 329 0
 308 013a 80E0      		ldi r24,lo8(usbDescriptorString0)
 309 013c 90E0      		ldi r25,hi8(usbDescriptorString0)
 310               	.LVL42:
 311 013e 9093 0000 		sts usbMsgPtr+1,r25
 312 0142 8093 0000 		sts usbMsgPtr,r24
 313 0146 84E0      		ldi r24,lo8(4)
 314 0148 00C0      		rjmp .L28
 315               	.LVL43:
 316               	.L31:
 330:../usbdrv/usbdrv.c ****             GET_DESCRIPTOR(USB_CFG_DESCR_PROPS_STRING_VENDOR, usbDescriptorStringVendor)
 317               		.loc 1 330 0
 318 014a 9130      		cpi r25,lo8(1)
 319 014c 01F4      		brne .L32
 320               	.LVL44:
 331:../usbdrv/usbdrv.c ****         SWITCH_CASE(2)
 321               		.loc 1 331 0
 322 014e 80E0      		ldi r24,lo8(usbDescriptorStringVendor)
 323 0150 90E0      		ldi r25,hi8(usbDescriptorStringVendor)
 324               	.LVL45:
 325 0152 9093 0000 		sts usbMsgPtr+1,r25
 326 0156 8093 0000 		sts usbMsgPtr,r24
 327 015a 86E1      		ldi r24,lo8(22)
 328 015c 00C0      		rjmp .L28
 329               	.LVL46:
 330               	.L32:
 332:../usbdrv/usbdrv.c ****             GET_DESCRIPTOR(USB_CFG_DESCR_PROPS_STRING_PRODUCT, usbDescriptorStringDevice)
 331               		.loc 1 332 0
 332 015e 9230      		cpi r25,lo8(2)
 333 0160 01F4      		brne .L62
 334               	.LVL47:
 333:../usbdrv/usbdrv.c ****         SWITCH_CASE(3)
 335               		.loc 1 333 0
 336 0162 80E0      		ldi r24,lo8(usbDescriptorStringDevice)
 337 0164 90E0      		ldi r25,hi8(usbDescriptorStringDevice)
 338               	.LVL48:
 339 0166 9093 0000 		sts usbMsgPtr+1,r25
 340 016a 8093 0000 		sts usbMsgPtr,r24
 341 016e 84E2      		ldi r24,lo8(36)
 342 0170 00C0      		rjmp .L28
 343               	.LVL49:
 344               	.L30:
 345               	.LBE73:
 343:../usbdrv/usbdrv.c ****         GET_DESCRIPTOR(USB_CFG_DESCR_PROPS_HID, usbDescriptorConfiguration + 18)
 346               		.loc 1 343 0
 347 0172 8132      		cpi r24,lo8(33)
 348 0174 01F4      		brne .L33
 349               	.LVL50:
 344:../usbdrv/usbdrv.c ****     SWITCH_CASE(USBDESCR_HID_REPORT)/* 0x22 */
 350               		.loc 1 344 0
 351 0176 80E0      		ldi r24,lo8(usbDescriptorConfiguration+18)
 352 0178 90E0      		ldi r25,hi8(usbDescriptorConfiguration+18)
 353               	.LVL51:
 354 017a 9093 0000 		sts usbMsgPtr+1,r25
 355 017e 8093 0000 		sts usbMsgPtr,r24
 356 0182 89E0      		ldi r24,lo8(9)
 357 0184 00C0      		rjmp .L28
 358               	.LVL52:
 359               	.L33:
 345:../usbdrv/usbdrv.c ****         GET_DESCRIPTOR(USB_CFG_DESCR_PROPS_HID_REPORT, usbDescriptorHidReport)
 360               		.loc 1 345 0
 361 0186 8232      		cpi r24,lo8(34)
 362 0188 01F4      		brne .L62
 363               	.LVL53:
 346:../usbdrv/usbdrv.c **** #endif
 364               		.loc 1 346 0
 365 018a 80E0      		ldi r24,lo8(usbDescriptorHidReport)
 366 018c 90E0      		ldi r25,hi8(usbDescriptorHidReport)
 367               	.LVL54:
 368 018e 9093 0000 		sts usbMsgPtr+1,r25
 369 0192 8093 0000 		sts usbMsgPtr,r24
 370 0196 80E5      		ldi r24,lo8(80)
 371 0198 00C0      		rjmp .L28
 372               	.LVL55:
 373               	.L62:
 374               	.LBE72:
 313:../usbdrv/usbdrv.c **** uchar       flags = USB_FLG_MSGPTR_IS_ROM;
 375               		.loc 1 313 0
 376 019a 80E0      		ldi r24,0
 377               	.LVL56:
 378               	.L28:
 353:../usbdrv/usbdrv.c ****     return len;
 379               		.loc 1 353 0
 380 019c 90E4      		ldi r25,lo8(64)
 381               	.LVL57:
 382 019e 9093 0000 		sts usbMsgFlags,r25
 383               	.LVL58:
 384 01a2 00C0      		rjmp .L18
 385               	.LVL59:
 386               	.L26:
 387               	.LBE71:
 388               	.LBE70:
 395:../usbdrv/usbdrv.c ****         dataPtr = &usbConfiguration;  /* send current configuration value */
 389               		.loc 1 395 0
 390 01a4 8830      		cpi r24,lo8(8)
 391 01a6 01F0      		breq .L63
 398:../usbdrv/usbdrv.c ****         usbConfiguration = value;
 392               		.loc 1 398 0
 393 01a8 8930      		cpi r24,lo8(9)
 394 01aa 01F4      		brne .L35
 399:../usbdrv/usbdrv.c ****         usbResetStall();
 395               		.loc 1 399 0
 396 01ac 9093 0000 		sts usbConfiguration,r25
 397 01b0 00C0      		rjmp .L93
 398               	.L35:
 401:../usbdrv/usbdrv.c ****         len = 1;
 399               		.loc 1 401 0
 400 01b2 8A30      		cpi r24,lo8(10)
 401 01b4 01F0      		breq .L64
 404:../usbdrv/usbdrv.c ****         usbResetDataToggling();
 402               		.loc 1 404 0
 403 01b6 8B30      		cpi r24,lo8(11)
 404 01b8 01F4      		brne .L65
 405               	.LBB74:
 406               	.LBB75:
 200:../usbdrv/usbdrv.c **** #   if USB_CFG_HAVE_INTRIN_ENDPOINT3
 407               		.loc 1 200 0
 408 01ba 8BE4      		ldi r24,lo8(75)
 409               	.LVL60:
 410 01bc 8093 0000 		sts usbTxStatus1+1,r24
 411               	.L93:
 412               	.LBE75:
 413               	.LBE74:
 414               	.LBB76:
 415               	.LBB77:
 210:../usbdrv/usbdrv.c **** #if USB_CFG_HAVE_INTRIN_ENDPOINT3
 416               		.loc 1 210 0
 417 01c0 8AE5      		ldi r24,lo8(90)
 418 01c2 8093 0000 		sts usbTxStatus1,r24
 419 01c6 00C0      		rjmp .L65
 420               	.LVL61:
 421               	.L63:
 422               	.LBE77:
 423               	.LBE76:
 396:../usbdrv/usbdrv.c ****         len = 1;
 424               		.loc 1 396 0
 425 01c8 20E0      		ldi r18,lo8(usbConfiguration)
 426 01ca 30E0      		ldi r19,hi8(usbConfiguration)
 427 01cc 00C0      		rjmp .L91
 428               	.L64:
 429               	.LBE78:
 364:../usbdrv/usbdrv.c **** uchar   value = rq->wValue.bytes[0];
 430               		.loc 1 364 0
 431 01ce 20E0      		ldi r18,lo8(usbTxBuf+9)
 432 01d0 30E0      		ldi r19,hi8(usbTxBuf+9)
 433               	.LVL62:
 434               	.L91:
 435               	.LBB79:
 402:../usbdrv/usbdrv.c **** #if USB_CFG_HAVE_INTRIN_ENDPOINT && !USB_CFG_SUPPRESS_INTR_CODE
 436               		.loc 1 402 0
 437 01d2 81E0      		ldi r24,lo8(1)
 438               	.LVL63:
 439 01d4 00C0      		rjmp .L22
 440               	.L65:
 441               	.LBE79:
 364:../usbdrv/usbdrv.c **** uchar   value = rq->wValue.bytes[0];
 442               		.loc 1 364 0
 443 01d6 20E0      		ldi r18,lo8(usbTxBuf+9)
 444 01d8 30E0      		ldi r19,hi8(usbTxBuf+9)
 445               	.LVL64:
 446 01da 80E0      		ldi r24,0
 447               	.LVL65:
 448               	.L22:
 411:../usbdrv/usbdrv.c **** skipMsgPtrAssignment:
 449               		.loc 1 411 0
 450 01dc 3093 0000 		sts usbMsgPtr+1,r19
 451 01e0 2093 0000 		sts usbMsgPtr,r18
 452 01e4 00C0      		rjmp .L18
 453               	.LVL66:
 454               	.L17:
 455               	.LBE64:
 456               	.LBE63:
 455:../usbdrv/usbdrv.c ****                 if(sizeof(replyLen) < sizeof(rq->wLength.word)){ /* help compiler with optimizing *
 457               		.loc 1 455 0
 458 01e6 9881      		ld r25,Y
 459 01e8 97FD      		sbrc r25,7
 457:../usbdrv/usbdrv.c ****                 }else{
 460               		.loc 1 457 0
 461 01ea 8E81      		ldd r24,Y+6
 462               	.LVL67:
 463               	.L36:
 462:../usbdrv/usbdrv.c ****         }else   /* The 'else' prevents that we limit a replyLen of USB_NO_MSG to the maximum transf
 464               		.loc 1 462 0
 465 01ec 90E8      		ldi r25,lo8(-128)
 466 01ee 9093 0000 		sts usbMsgFlags,r25
 467 01f2 00C0      		rjmp .L37
 468               	.LVL68:
 469               	.L18:
 466:../usbdrv/usbdrv.c ****                 replyLen = rq->wLength.bytes[0];
 470               		.loc 1 466 0
 471 01f4 9F81      		ldd r25,Y+7
 472 01f6 9111      		cpse r25,__zero_reg__
 473 01f8 00C0      		rjmp .L37
 474 01fa 9E81      		ldd r25,Y+6
 475 01fc 9817      		cp r25,r24
 476 01fe 00F4      		brsh .L37
 477 0200 892F      		mov r24,r25
 478               	.LVL69:
 479               	.L37:
 472:../usbdrv/usbdrv.c ****     }else{  /* usbRxToken must be USBPID_OUT, which means data phase of setup (control-out) */
 480               		.loc 1 472 0
 481 0202 8093 0000 		sts usbMsgLen,r24
 482 0206 00C0      		rjmp .L15
 483               	.LVL70:
 484               	.L13:
 485               	.LBE62:
 475:../usbdrv/usbdrv.c ****             uchar rval = usbFunctionWrite(data, len);
 486               		.loc 1 475 0
 487 0208 8091 0000 		lds r24,usbMsgFlags
 488 020c 87FF      		sbrs r24,7
 489 020e 00C0      		rjmp .L15
 490               	.LBB80:
 476:../usbdrv/usbdrv.c ****             if(rval == 0xff){   /* an error occurred */
 491               		.loc 1 476 0
 492 0210 CE01      		movw r24,r28
 493 0212 00D0      		rcall usbFunctionWrite
 494               	.LVL71:
 477:../usbdrv/usbdrv.c ****                 usbTxLen = USBPID_STALL;
 495               		.loc 1 477 0
 496 0214 8F3F      		cpi r24,lo8(-1)
 497 0216 01F4      		brne .L40
 478:../usbdrv/usbdrv.c ****             }else if(rval != 0){    /* This was the final package */
 498               		.loc 1 478 0
 499 0218 8EE1      		ldi r24,lo8(30)
 500               	.LVL72:
 501 021a 8093 0000 		sts usbTxLen,r24
 502 021e 00C0      		rjmp .L15
 503               	.LVL73:
 504               	.L40:
 479:../usbdrv/usbdrv.c ****                 usbMsgLen = 0;  /* answer with a zero-sized data packet */
 505               		.loc 1 479 0
 506 0220 8111      		cpse r24,__zero_reg__
 480:../usbdrv/usbdrv.c ****             }
 507               		.loc 1 480 0
 508 0222 1092 0000 		sts usbMsgLen,__zero_reg__
 509               	.LVL74:
 510               	.L15:
 511               	.LBE80:
 512               	.LBE61:
 513               	.LBE60:
 579:../usbdrv/usbdrv.c **** #if USB_CFG_HAVE_FLOWCONTROL
 580:../usbdrv/usbdrv.c ****         if(usbRxLen > 0)    /* only mark as available if not inactivated */
 581:../usbdrv/usbdrv.c ****             usbRxLen = 0;
 582:../usbdrv/usbdrv.c **** #else
 583:../usbdrv/usbdrv.c ****         usbRxLen = 0;       /* mark rx buffer as available */
 514               		.loc 1 583 0
 515 0226 1092 0000 		sts usbRxLen,__zero_reg__
 516               	.LVL75:
 517               	.L12:
 584:../usbdrv/usbdrv.c **** #endif
 585:../usbdrv/usbdrv.c ****     }
 586:../usbdrv/usbdrv.c ****     if(usbTxLen & 0x10){    /* transmit system idle */
 518               		.loc 1 586 0
 519 022a 8091 0000 		lds r24,usbTxLen
 520 022e 84FF      		sbrs r24,4
 521 0230 00C0      		rjmp .L41
 587:../usbdrv/usbdrv.c ****         if(usbMsgLen != USB_NO_MSG){    /* transmit data pending? */
 522               		.loc 1 587 0
 523 0232 8091 0000 		lds r24,usbMsgLen
 524 0236 8F3F      		cpi r24,lo8(-1)
 525 0238 01F4      		brne .+2
 526 023a 00C0      		rjmp .L41
 527               	.LVL76:
 528 023c C82F      		mov r28,r24
 529 023e 8930      		cpi r24,lo8(9)
 530 0240 00F0      		brlo .L42
 531 0242 C8E0      		ldi r28,lo8(8)
 532               	.L42:
 533               	.LVL77:
 534               	.LBB81:
 535               	.LBB82:
 532:../usbdrv/usbdrv.c ****     usbTxBuf[0] ^= USBPID_DATA0 ^ USBPID_DATA1; /* DATA toggling */
 536               		.loc 1 532 0
 537 0244 8C1B      		sub r24,r28
 538 0246 8093 0000 		sts usbMsgLen,r24
 533:../usbdrv/usbdrv.c ****     len = usbDeviceRead(usbTxBuf + 1, wantLen);
 539               		.loc 1 533 0
 540 024a 9091 0000 		lds r25,usbTxBuf
 541 024e 88E8      		ldi r24,lo8(-120)
 542 0250 8927      		eor r24,r25
 543 0252 8093 0000 		sts usbTxBuf,r24
 544               	.LVL78:
 545               	.LBB83:
 546               	.LBB84:
 494:../usbdrv/usbdrv.c **** #if USB_CFG_IMPLEMENT_FN_READ
 547               		.loc 1 494 0
 548 0256 CC23      		tst r28
 549 0258 01F4      		brne .+2
 550 025a 00C0      		rjmp .L43
 496:../usbdrv/usbdrv.c ****             len = usbFunctionRead(data, len);
 551               		.loc 1 496 0
 552 025c 2091 0000 		lds r18,usbMsgFlags
 553 0260 27FF      		sbrs r18,7
 554 0262 00C0      		rjmp .L44
 497:../usbdrv/usbdrv.c ****         }else
 555               		.loc 1 497 0
 556 0264 6C2F      		mov r22,r28
 557 0266 80E0      		ldi r24,lo8(usbTxBuf+1)
 558 0268 90E0      		ldi r25,hi8(usbTxBuf+1)
 559               	.LVL79:
 560 026a 00D0      		rcall usbFunctionRead
 561               	.LVL80:
 562 026c C82F      		mov r28,r24
 563               	.LVL81:
 564               	.LBE84:
 565               	.LBE83:
 535:../usbdrv/usbdrv.c ****         usbCrc16Append(&usbTxBuf[1], len);
 566               		.loc 1 535 0
 567 026e 8930      		cpi r24,lo8(9)
 568 0270 00F4      		brsh .L90
 569 0272 00C0      		rjmp .L45
 570               	.LVL82:
 571               	.L44:
 572               	.LBB89:
 573               	.LBB88:
 574               	.LBB85:
 501:../usbdrv/usbdrv.c ****             if(usbMsgFlags & USB_FLG_MSGPTR_IS_ROM){    /* ROM data */
 575               		.loc 1 501 0
 576 0274 8091 0000 		lds r24,usbMsgPtr
 577 0278 9091 0000 		lds r25,usbMsgPtr+1
 578               	.LVL83:
 502:../usbdrv/usbdrv.c ****                 do{
 579               		.loc 1 502 0
 580 027c 26FF      		sbrs r18,6
 581 027e 00C0      		rjmp .L47
 582 0280 A0E0      		ldi r26,lo8(usbTxBuf+1)
 583 0282 B0E0      		ldi r27,hi8(usbTxBuf+1)
 584               	.LVL84:
 585 0284 FC01      		movw r30,r24
 586 0286 2C2F      		mov r18,r28
 587               	.LVL85:
 588               	.L48:
 589               	.LBB86:
 590               	.LBB87:
 504:../usbdrv/usbdrv.c ****                     *data++ = c;
 591               		.loc 1 504 0
 592               	/* #APP */
 593               	 ;  504 "../usbdrv/usbdrv.c" 1
 594 0288 3491      		lpm r19, Z
 595               		
 596               	 ;  0 "" 2
 597               	.LVL86:
 598               	/* #NOAPP */
 599               	.LBE87:
 505:../usbdrv/usbdrv.c ****                     r++;
 600               		.loc 1 505 0
 601 028a 3D93      		st X+,r19
 506:../usbdrv/usbdrv.c ****                 }while(--i);
 602               		.loc 1 506 0
 603 028c 3196      		adiw r30,1
 604               	.LVL87:
 605               	.LBE86:
 507:../usbdrv/usbdrv.c ****             }else{  /* RAM data */
 606               		.loc 1 507 0
 607 028e 2150      		subi r18,lo8(-(-1))
 608               	.LVL88:
 609 0290 01F4      		brne .L48
 610 0292 00C0      		rjmp .L92
 611               	.LVL89:
 612               	.L47:
 613 0294 DC01      		movw r26,r24
 614 0296 E0E0      		ldi r30,lo8(usbTxBuf+1)
 615 0298 F0E0      		ldi r31,hi8(usbTxBuf+1)
 616               	.LVL90:
 502:../usbdrv/usbdrv.c ****                 do{
 617               		.loc 1 502 0
 618 029a 2C2F      		mov r18,r28
 619               	.LVL91:
 620               	.L50:
 510:../usbdrv/usbdrv.c ****                 }while(--i);
 621               		.loc 1 510 0
 622 029c 3D91      		ld r19,X+
 623               	.LVL92:
 624 029e 3193      		st Z+,r19
 511:../usbdrv/usbdrv.c ****             }
 625               		.loc 1 511 0
 626 02a0 2150      		subi r18,lo8(-(-1))
 627               	.LVL93:
 628 02a2 01F4      		brne .L50
 629               	.LVL94:
 630               	.L92:
 631 02a4 2FEF      		ldi r18,lo8(-1)
 632               	.LVL95:
 633 02a6 2C0F      		add r18,r28
 634 02a8 30E0      		ldi r19,0
 635 02aa 2F5F      		subi r18,-1
 636 02ac 3F4F      		sbci r19,-1
 637 02ae 820F      		add r24,r18
 638 02b0 931F      		adc r25,r19
 639               	.LVL96:
 513:../usbdrv/usbdrv.c ****         }
 640               		.loc 1 513 0
 641 02b2 9093 0000 		sts usbMsgPtr+1,r25
 642 02b6 8093 0000 		sts usbMsgPtr,r24
 643               	.LVL97:
 644               	.L45:
 645               	.LBE85:
 646               	.LBE88:
 647               	.LBE89:
 536:../usbdrv/usbdrv.c ****         len += 4;           /* length including sync byte */
 648               		.loc 1 536 0
 649 02ba 6C2F      		mov r22,r28
 650 02bc 80E0      		ldi r24,lo8(usbTxBuf+1)
 651 02be 90E0      		ldi r25,hi8(usbTxBuf+1)
 652 02c0 00D0      		rcall usbCrc16Append
 653               	.LVL98:
 537:../usbdrv/usbdrv.c ****         if(len < 12)        /* a partial package identifies end of message */
 654               		.loc 1 537 0
 655 02c2 CC5F      		subi r28,lo8(-(4))
 656               	.LVL99:
 538:../usbdrv/usbdrv.c ****             usbMsgLen = USB_NO_MSG;
 657               		.loc 1 538 0
 658 02c4 CC30      		cpi r28,lo8(12)
 659 02c6 01F0      		breq .L51
 660               	.LVL100:
 661               	.L57:
 539:../usbdrv/usbdrv.c ****     }else{
 662               		.loc 1 539 0
 663 02c8 8FEF      		ldi r24,lo8(-1)
 664 02ca 8093 0000 		sts usbMsgLen,r24
 665 02ce 00C0      		rjmp .L51
 666               	.LVL101:
 667               	.L90:
 542:../usbdrv/usbdrv.c ****     }
 668               		.loc 1 542 0
 669 02d0 8FEF      		ldi r24,lo8(-1)
 670 02d2 8093 0000 		sts usbMsgLen,r24
 541:../usbdrv/usbdrv.c ****         usbMsgLen = USB_NO_MSG;
 671               		.loc 1 541 0
 672 02d6 CEE1      		ldi r28,lo8(30)
 673               	.LVL102:
 674               	.L51:
 544:../usbdrv/usbdrv.c ****     DBG2(0x20, usbTxBuf, len-1);
 675               		.loc 1 544 0
 676 02d8 C093 0000 		sts usbTxLen,r28
 677               	.LVL103:
 678               	.L41:
 679               	.LBE82:
 680               	.LBE81:
 588:../usbdrv/usbdrv.c ****             usbBuildTxBlock();
 589:../usbdrv/usbdrv.c ****         }
 590:../usbdrv/usbdrv.c ****     }
 591:../usbdrv/usbdrv.c ****     for(i = 20; i > 0; i--){
 681               		.loc 1 591 0
 682 02dc 84E1      		ldi r24,lo8(20)
 683               	.LVL104:
 684               	.L53:
 685               	.LBB91:
 592:../usbdrv/usbdrv.c ****         uchar usbLineStatus = USBIN & USBMASK;
 686               		.loc 1 592 0
 687 02de 96B3      		in r25,0x16
 688               	.LVL105:
 593:../usbdrv/usbdrv.c ****         if(usbLineStatus != 0)  /* SE0 has ended */
 689               		.loc 1 593 0
 690 02e0 9474      		andi r25,lo8(68)
 691               	.LVL106:
 692 02e2 01F4      		brne .L52
 693               	.LBE91:
 591:../usbdrv/usbdrv.c ****         uchar usbLineStatus = USBIN & USBMASK;
 694               		.loc 1 591 0 discriminator 2
 695 02e4 8150      		subi r24,lo8(-(-1))
 696               	.LVL107:
 697 02e6 01F4      		brne .L53
 594:../usbdrv/usbdrv.c ****             goto isNotReset;
 595:../usbdrv/usbdrv.c ****     }
 596:../usbdrv/usbdrv.c ****     /* RESET condition, called multiple times during reset */
 597:../usbdrv/usbdrv.c ****     usbNewDeviceAddr = 0;
 698               		.loc 1 597 0
 699 02e8 1092 0000 		sts usbNewDeviceAddr,__zero_reg__
 598:../usbdrv/usbdrv.c ****     usbDeviceAddr = 0;
 700               		.loc 1 598 0
 701 02ec 1092 0000 		sts usbDeviceAddr,__zero_reg__
 702               	.LBB92:
 703               	.LBB93:
 210:../usbdrv/usbdrv.c **** #if USB_CFG_HAVE_INTRIN_ENDPOINT3
 704               		.loc 1 210 0
 705 02f0 9AE5      		ldi r25,lo8(90)
 706               	.LVL108:
 707 02f2 9093 0000 		sts usbTxStatus1,r25
 708               	.L52:
 709               	.LVL109:
 710               	.LBE93:
 711               	.LBE92:
 712               	.LBB94:
 713               	.LBB95:
 554:../usbdrv/usbdrv.c **** 
 714               		.loc 1 554 0
 715 02f6 C1E0      		ldi r28,lo8(1)
 716 02f8 8111      		cpse r24,__zero_reg__
 717 02fa C0E0      		ldi r28,0
 718               	.L54:
 719               	.LVL110:
 556:../usbdrv/usbdrv.c ****         USB_RESET_HOOK(isReset);
 720               		.loc 1 556 0
 721 02fc 9091 0000 		lds r25,wasReset.1770
 722 0300 C917      		cp r28,r25
 723 0302 01F0      		breq .L11
 557:../usbdrv/usbdrv.c ****         wasReset = isReset;
 724               		.loc 1 557 0
 725 0304 8823      		tst r24
 726 0306 01F0      		breq .L56
 727               	/* #APP */
 728               	 ;  557 "../usbdrv/usbdrv.c" 1
 729 0308 F894      		cli
 730               	 ;  0 "" 2
 731               	/* #NOAPP */
 732 030a 00D0      		rcall calibrateOscillator
 733               	.LVL111:
 734               	/* #APP */
 735               	 ;  557 "../usbdrv/usbdrv.c" 1
 736 030c 7894      		sei
 737               	 ;  0 "" 2
 738               	/* #NOAPP */
 739               	.L56:
 558:../usbdrv/usbdrv.c ****     }
 740               		.loc 1 558 0
 741 030e C093 0000 		sts wasReset.1770,r28
 742               	.LVL112:
 743               	.LBE95:
 744               	.LBE94:
 599:../usbdrv/usbdrv.c ****     usbResetStall();
 600:../usbdrv/usbdrv.c ****     DBG1(0xff, 0, 0);
 601:../usbdrv/usbdrv.c **** isNotReset:
 602:../usbdrv/usbdrv.c ****     usbHandleResetHook(i);
 603:../usbdrv/usbdrv.c **** }
 745               		.loc 1 603 0
 746 0312 00C0      		rjmp .L11
 747               	.LVL113:
 748               	.L43:
 749               	.LBB96:
 750               	.LBB90:
 536:../usbdrv/usbdrv.c ****         len += 4;           /* length including sync byte */
 751               		.loc 1 536 0
 752 0314 60E0      		ldi r22,0
 753 0316 80E0      		ldi r24,lo8(usbTxBuf+1)
 754 0318 90E0      		ldi r25,hi8(usbTxBuf+1)
 755 031a 00D0      		rcall usbCrc16Append
 756               	.LVL114:
 537:../usbdrv/usbdrv.c ****         if(len < 12)        /* a partial package identifies end of message */
 757               		.loc 1 537 0
 758 031c C4E0      		ldi r28,lo8(4)
 759               	.LVL115:
 760 031e 00C0      		rjmp .L57
 761               	.LVL116:
 762               	.L11:
 763               	/* epilogue start */
 764               	.LBE90:
 765               	.LBE96:
 766               		.loc 1 603 0
 767 0320 DF91      		pop r29
 768 0322 CF91      		pop r28
 769 0324 0895      		ret
 770               		.cfi_endproc
 771               	.LFE12:
 772               		.size	usbPoll, .-usbPoll
 773               	.global	usbInit
 774               		.type	usbInit, @function
 775               	usbInit:
 776               	.LFB13:
 604:../usbdrv/usbdrv.c **** 
 605:../usbdrv/usbdrv.c **** /* ------------------------------------------------------------------------- */
 606:../usbdrv/usbdrv.c **** 
 607:../usbdrv/usbdrv.c **** USB_PUBLIC void usbInit(void)
 608:../usbdrv/usbdrv.c **** {
 777               		.loc 1 608 0
 778               		.cfi_startproc
 779               	/* prologue: function */
 780               	/* frame size = 0 */
 781               	/* stack size = 0 */
 782               	.L__stack_usage = 0
 609:../usbdrv/usbdrv.c **** #if USB_INTR_CFG_SET != 0
 610:../usbdrv/usbdrv.c ****     USB_INTR_CFG |= USB_INTR_CFG_SET;
 783               		.loc 1 610 0
 784 0326 85B7      		in r24,0x35
 785 0328 8260      		ori r24,lo8(2)
 786 032a 85BF      		out 0x35,r24
 611:../usbdrv/usbdrv.c **** #endif
 612:../usbdrv/usbdrv.c **** #if USB_INTR_CFG_CLR != 0
 613:../usbdrv/usbdrv.c ****     USB_INTR_CFG &= ~(USB_INTR_CFG_CLR);
 614:../usbdrv/usbdrv.c **** #endif
 615:../usbdrv/usbdrv.c ****     USB_INTR_ENABLE |= (1 << USB_INTR_ENABLE_BIT);
 787               		.loc 1 615 0
 788 032c 8BB7      		in r24,0x3b
 789 032e 8064      		ori r24,lo8(64)
 790 0330 8BBF      		out 0x3b,r24
 791               	.LBB97:
 792               	.LBB98:
 200:../usbdrv/usbdrv.c **** #   if USB_CFG_HAVE_INTRIN_ENDPOINT3
 793               		.loc 1 200 0
 794 0332 E0E0      		ldi r30,lo8(usbTxStatus1)
 795 0334 F0E0      		ldi r31,hi8(usbTxStatus1)
 796 0336 8BE4      		ldi r24,lo8(75)
 797 0338 8183      		std Z+1,r24
 798               	.LBE98:
 799               	.LBE97:
 616:../usbdrv/usbdrv.c ****     usbResetDataToggling();
 617:../usbdrv/usbdrv.c **** #if USB_CFG_HAVE_INTRIN_ENDPOINT && !USB_CFG_SUPPRESS_INTR_CODE
 618:../usbdrv/usbdrv.c ****     usbTxLen1 = USBPID_NAK;
 800               		.loc 1 618 0
 801 033a 8AE5      		ldi r24,lo8(90)
 802 033c 8083      		st Z,r24
 803 033e 0895      		ret
 804               		.cfi_endproc
 805               	.LFE13:
 806               		.size	usbInit, .-usbInit
 807               		.local	wasReset.1770
 808               		.comm	wasReset.1770,1,1
 809               	.global	usbDescriptorConfiguration
 810               		.section	.progmem.data,"a",@progbits
 811               		.type	usbDescriptorConfiguration, @object
 812               		.size	usbDescriptorConfiguration, 34
 813               	usbDescriptorConfiguration:
 814 0000 09        		.byte	9
 815 0001 02        		.byte	2
 816 0002 22        		.byte	34
 817 0003 00        		.byte	0
 818 0004 01        		.byte	1
 819 0005 01        		.byte	1
 820 0006 00        		.byte	0
 821 0007 80        		.byte	-128
 822 0008 32        		.byte	50
 823 0009 09        		.byte	9
 824 000a 04        		.byte	4
 825 000b 00        		.byte	0
 826 000c 00        		.byte	0
 827 000d 01        		.byte	1
 828 000e 03        		.byte	3
 829 000f 00        		.byte	0
 830 0010 00        		.byte	0
 831 0011 00        		.byte	0
 832 0012 09        		.byte	9
 833 0013 21        		.byte	33
 834 0014 01        		.byte	1
 835 0015 01        		.byte	1
 836 0016 00        		.byte	0
 837 0017 01        		.byte	1
 838 0018 22        		.byte	34
 839 0019 50        		.byte	80
 840 001a 00        		.byte	0
 841 001b 07        		.byte	7
 842 001c 05        		.byte	5
 843 001d 81        		.byte	-127
 844 001e 03        		.byte	3
 845 001f 08        		.byte	8
 846 0020 00        		.byte	0
 847 0021 64        		.byte	100
 848               	.global	usbDescriptorDevice
 849               		.type	usbDescriptorDevice, @object
 850               		.size	usbDescriptorDevice, 18
 851               	usbDescriptorDevice:
 852 0022 12        		.byte	18
 853 0023 01        		.byte	1
 854 0024 10        		.byte	16
 855 0025 01        		.byte	1
 856 0026 00        		.byte	0
 857 0027 00        		.byte	0
 858 0028 00        		.byte	0
 859 0029 08        		.byte	8
 860 002a 42        		.byte	66
 861 002b 42        		.byte	66
 862 002c 55        		.byte	85
 863 002d E4        		.byte	-28
 864 002e 09        		.byte	9
 865 002f 00        		.byte	0
 866 0030 01        		.byte	1
 867 0031 02        		.byte	2
 868 0032 00        		.byte	0
 869 0033 01        		.byte	1
 870               	.global	usbDescriptorStringDevice
 871               		.type	usbDescriptorStringDevice, @object
 872               		.size	usbDescriptorStringDevice, 36
 873               	usbDescriptorStringDevice:
 874 0034 2403      		.word	804
 875 0036 4200      		.word	66
 876 0038 6900      		.word	105
 877 003a 7200      		.word	114
 878 003c 6B00      		.word	107
 879 003e 6C00      		.word	108
 880 0040 6500      		.word	101
 881 0042 7200      		.word	114
 882 0044 2000      		.word	32
 883 0046 5300      		.word	83
 884 0048 6900      		.word	105
 885 004a 6D00      		.word	109
 886 004c 7000      		.word	112
 887 004e 6C00      		.word	108
 888 0050 6500      		.word	101
 889 0052 4800      		.word	72
 890 0054 4900      		.word	73
 891 0056 4400      		.word	68
 892               	.global	usbDescriptorStringVendor
 893               		.type	usbDescriptorStringVendor, @object
 894               		.size	usbDescriptorStringVendor, 22
 895               	usbDescriptorStringVendor:
 896 0058 1603      		.word	790
 897 005a 6200      		.word	98
 898 005c 6900      		.word	105
 899 005e 7200      		.word	114
 900 0060 6B00      		.word	107
 901 0062 6C00      		.word	108
 902 0064 6500      		.word	101
 903 0066 7200      		.word	114
 904 0068 2E00      		.word	46
 905 006a 7300      		.word	115
 906 006c 6500      		.word	101
 907               	.global	usbDescriptorString0
 908               		.type	usbDescriptorString0, @object
 909               		.size	usbDescriptorString0, 4
 910               	usbDescriptorString0:
 911 006e 04        		.byte	4
 912 006f 03        		.byte	3
 913 0070 09        		.byte	9
 914 0071 04        		.byte	4
 915               		.local	usbMsgFlags
 916               		.comm	usbMsgFlags,1,1
 917               		.data
 918               		.type	usbMsgLen, @object
 919               		.size	usbMsgLen, 1
 920               	usbMsgLen:
 921 0000 FF        		.byte	-1
 922               		.comm	usbMsgPtr,2,1
 923               		.comm	usbTxStatus1,12,1
 924               		.comm	usbTxBuf,11,1
 925               	.global	usbTxLen
 926               		.type	usbTxLen, @object
 927               		.size	usbTxLen, 1
 928               	usbTxLen:
 929 0001 5A        		.byte	90
 930               		.comm	usbRxToken,1,1
 931               		.comm	usbCurrentTok,1,1
 932               		.comm	usbRxLen,1,1
 933               		.comm	usbConfiguration,1,1
 934               		.comm	usbNewDeviceAddr,1,1
 935               		.comm	usbDeviceAddr,1,1
 936               		.comm	usbInputBufOffset,1,1
 937               		.comm	usbRxBuf,22,1
 938               		.text
 939               	.Letext0:
 940               		.file 2 "/usr/lib/avr/include/stdint.h"
 941               		.file 3 "../usbdrv/usbdrv.h"
 942               		.file 4 "./usbconfig.h"