   1               		.file	"main.c"
   2               	__SP_H__ = 0x3e
   3               	__SP_L__ = 0x3d
   4               	__SREG__ = 0x3f
   5               	__tmp_reg__ = 0
   6               	__zero_reg__ = 1
   7               		.text
   8               	.Ltext0:
   9               		.cfi_sections	.debug_frame
  10               	.global	__mulsi3
  11               	.global	filter_iir2
  12               		.type	filter_iir2, @function
  13               	filter_iir2:
  14               	.LFB21:
  15               		.file 1 "../util/iir_filter.h"
   1:../util/iir_filter.h **** /*
   2:../util/iir_filter.h ****  * iir_filter.h
   3:../util/iir_filter.h ****  *
   4:../util/iir_filter.h ****  *  Created on: Jan 25, 2011
   5:../util/iir_filter.h ****  *      Author: jorgen
   6:../util/iir_filter.h ****  *
   7:../util/iir_filter.h ****  *
   8:../util/iir_filter.h ****  *
   9:../util/iir_filter.h ****  *
  10:../util/iir_filter.h ****  *
  11:../util/iir_filter.h ****  *      http://faculty.cua.edu/regalia/regalia-perso_files/sp-sep-91.pdf
  12:../util/iir_filter.h ****  *
  13:../util/iir_filter.h ****  *      http://www.dsptutor.freeuk.com/IIRFilterDesign/IIRFilterDesign.html
  14:../util/iir_filter.h ****  *
  15:../util/iir_filter.h ****  *      http://ntur.lib.ntu.edu.tw/bitstream/246246/142473/1/63.pdf
  16:../util/iir_filter.h ****  */
  17:../util/iir_filter.h **** 
  18:../util/iir_filter.h **** #ifndef IIR_FILTER_H_
  19:../util/iir_filter.h **** #define IIR_FILTER_H_
  20:../util/iir_filter.h **** 
  21:../util/iir_filter.h **** #include "q7_8_t.h"
  22:../util/iir_filter.h **** #include "q2_13_t.h"
  23:../util/iir_filter.h **** 
  24:../util/iir_filter.h **** typedef struct {
  25:../util/iir_filter.h **** 	q7_8_t y_1;
  26:../util/iir_filter.h **** 	q7_8_t y_2;
  27:../util/iir_filter.h **** 	q7_8_t x_1;
  28:../util/iir_filter.h **** 	q7_8_t x_2;
  29:../util/iir_filter.h **** } filter_iir2_t;
  30:../util/iir_filter.h **** 
  31:../util/iir_filter.h **** 
  32:../util/iir_filter.h **** //Chebyshev IIR filter
  33:../util/iir_filter.h **** //
  34:../util/iir_filter.h **** //Filter type: HP
  35:../util/iir_filter.h **** //Passband: 400 - 4000 Hz
  36:../util/iir_filter.h **** //Passband ripple: 1.0 dB
  37:../util/iir_filter.h **** //Order: 2
  38:../util/iir_filter.h **** //
  39:../util/iir_filter.h **** //Coefficients
  40:../util/iir_filter.h **** //
  41:../util/iir_filter.h **** //a[0] = 0.7550102     	b[0] = 1.0
  42:../util/iir_filter.h **** //a[1] = -1.5100204     	b[1] = -1.655717
  43:../util/iir_filter.h **** //a[2] = 0.7550102     	b[2] = 0.73281693
  44:../util/iir_filter.h **** static q2_13_t q2_13_filter_iir2_90per_HP(filter_iir2_t* iir2,q2_13_t in)
  45:../util/iir_filter.h **** {
  46:../util/iir_filter.h **** 	const q2_13_t a0 = q2_13_float(0.7550102);
  47:../util/iir_filter.h **** 	const q2_13_t a1 = q2_13_float(-1.5100204);
  48:../util/iir_filter.h **** 	const q2_13_t a2 = q2_13_float( 0.7550102);
  49:../util/iir_filter.h **** 	const q2_13_t inv_b0 = q2_13_float(1/1.0);
  50:../util/iir_filter.h **** 	const q2_13_t _b1 = -q2_13_float(-1.655717);
  51:../util/iir_filter.h **** 	const q2_13_t _b2 = -q2_13_float(0.73281693);
  52:../util/iir_filter.h **** 
  53:../util/iir_filter.h **** 	q2_13_t res;
  54:../util/iir_filter.h **** 	res =  q2_13_mul(inv_b0,q2_13_sum(
  55:../util/iir_filter.h **** 			q2_13_mul(a0,in),
  56:../util/iir_filter.h **** 			q2_13_mul(a1,iir2->x_1),
  57:../util/iir_filter.h **** 			q2_13_mul(a2,iir2->x_2),
  58:../util/iir_filter.h **** 			q2_13_mul(_b1,iir2->y_1),
  59:../util/iir_filter.h **** 			q2_13_mul(_b2,iir2->y_2)));
  60:../util/iir_filter.h **** 	//printf("%f,",iir2->b0);
  61:../util/iir_filter.h **** 	iir2->y_2 = iir2->y_1;
  62:../util/iir_filter.h **** 	iir2->y_1 = res;
  63:../util/iir_filter.h **** 	iir2->x_2 = iir2->x_1;
  64:../util/iir_filter.h **** 	iir2->x_1 = in;
  65:../util/iir_filter.h **** 	return res;
  66:../util/iir_filter.h **** }
  67:../util/iir_filter.h **** 
  68:../util/iir_filter.h **** 
  69:../util/iir_filter.h **** 
  70:../util/iir_filter.h **** static q2_13_t q2_13_filter_iir2_50_BP(filter_iir2_t* iir2,q2_13_t in)
  71:../util/iir_filter.h **** {
  72:../util/iir_filter.h **** 	const q2_13_t a0 = q2_13_float(0.037804753 );
  73:../util/iir_filter.h **** 	const q2_13_t a1 = q2_13_float(0.0  );
  74:../util/iir_filter.h **** 	const q2_13_t a2 = q2_13_float(-0.037804753 );
  75:../util/iir_filter.h **** 	const q2_13_t inv_b0 = q2_13_float(1/1.0);
  76:../util/iir_filter.h **** 	const q2_13_t _b1 = -q2_13_float(-1.1792585E-16);
  77:../util/iir_filter.h **** 	const q2_13_t _b2 = -q2_13_float( 0.9243905);
  78:../util/iir_filter.h **** 
  79:../util/iir_filter.h **** 	q2_13_t res;
  80:../util/iir_filter.h **** 	res =  q2_13_mul(inv_b0,q2_13_sum(
  81:../util/iir_filter.h **** 			q2_13_mul(a0,in),
  82:../util/iir_filter.h **** 			q2_13_mul(a1,iir2->x_1),
  83:../util/iir_filter.h **** 			q2_13_mul(a2,iir2->x_2),
  84:../util/iir_filter.h **** 			q2_13_mul(_b1,iir2->y_1),
  85:../util/iir_filter.h **** 			q2_13_mul(_b2,iir2->y_2)));
  86:../util/iir_filter.h **** 	//printf("%f,",iir2->b0);
  87:../util/iir_filter.h **** 	iir2->y_2 = iir2->y_1;
  88:../util/iir_filter.h **** 	iir2->y_1 = res;
  89:../util/iir_filter.h **** 	iir2->x_2 = iir2->x_1;
  90:../util/iir_filter.h **** 	iir2->x_1 = in;
  91:../util/iir_filter.h **** 	return res;
  92:../util/iir_filter.h **** }
  93:../util/iir_filter.h **** 
  94:../util/iir_filter.h **** /*
  95:../util/iir_filter.h **** 
  96:../util/iir_filter.h **** static q2_13_t q2_13_filter_iir2_2_10_LP(filter_iir2_t* iir2,q2_13_t in)
  97:../util/iir_filter.h **** {
  98:../util/iir_filter.h **** 	const q2_13_t a0 = q2_13_float(0.0014603166);
  99:../util/iir_filter.h **** 	const q2_13_t a1 = q2_13_float(0.0029206332 );
 100:../util/iir_filter.h **** 	const q2_13_t a2 = q2_13_float(0.0014603166);
 101:../util/iir_filter.h **** 	const q2_13_t inv_b0 = q2_13_float(1/1.0);
 102:../util/iir_filter.h **** 	const q2_13_t _b1 = -q2_13_float(-1.8890331);
 103:../util/iir_filter.h **** 	const q2_13_t _b2 = -q2_13_float( 0.89487433);
 104:../util/iir_filter.h **** 
 105:../util/iir_filter.h **** 	q2_13_t res;
 106:../util/iir_filter.h **** 	res =  q2_13_mul(inv_b0,q2_13_sum(
 107:../util/iir_filter.h **** 			q2_13_mul(a0,in),
 108:../util/iir_filter.h **** 			q2_13_mul(a1,iir2->x_1),
 109:../util/iir_filter.h **** 			q2_13_mul(a2,iir2->x_2),
 110:../util/iir_filter.h **** 			q2_13_mul(_b1,iir2->y_1),
 111:../util/iir_filter.h **** 			q2_13_mul(_b2,iir2->y_2)));
 112:../util/iir_filter.h **** 	//printf("%f,",iir2->b0);
 113:../util/iir_filter.h **** 	iir2->y_2 = iir2->y_1;
 114:../util/iir_filter.h **** 	iir2->y_1 = res;
 115:../util/iir_filter.h **** 	iir2->x_2 = iir2->x_1;
 116:../util/iir_filter.h **** 	iir2->x_1 = in;
 117:../util/iir_filter.h **** 	return res;
 118:../util/iir_filter.h **** }
 119:../util/iir_filter.h **** */
 120:../util/iir_filter.h **** /*
 121:../util/iir_filter.h **** q2_13_t q2_13_filter_iir2(filter_iir2_t* iir2,q2_13_t in)
 122:../util/iir_filter.h **** {
 123:../util/iir_filter.h **** 	const q2_13_t a0 = q2_13_float(0.020517392);
 124:../util/iir_filter.h **** 	const q2_13_t a1 = q2_13_float(0.041034784);
 125:../util/iir_filter.h **** 	const q2_13_t a2 = q2_13_float(0.020517392);
 126:../util/iir_filter.h **** 	const q2_13_t inv_b0 = q2_13_float(1/1.0);
 127:../util/iir_filter.h **** 	const q2_13_t _b1 = -q2_13_float(-1.6185197);
 128:../util/iir_filter.h **** 	const q2_13_t _b2 = -q2_13_float(0.71059346);
 129:../util/iir_filter.h **** 
 130:../util/iir_filter.h **** 	q2_13_t res;
 131:../util/iir_filter.h **** 	res =  q2_13_mul(inv_b0,q2_13_sum(
 132:../util/iir_filter.h **** 			q2_13_mul(a0,in),
 133:../util/iir_filter.h **** 			q2_13_mul(a1,iir2->x_1),
 134:../util/iir_filter.h **** 			q2_13_mul(a2,iir2->x_2),
 135:../util/iir_filter.h **** 			q2_13_mul(_b1,iir2->y_1),
 136:../util/iir_filter.h **** 			q2_13_mul(_b2,iir2->y_2)));
 137:../util/iir_filter.h **** 	//printf("%f,",iir2->b0);
 138:../util/iir_filter.h **** 	iir2->y_2 = iir2->y_1;
 139:../util/iir_filter.h **** 	iir2->y_1 = res;
 140:../util/iir_filter.h **** 	iir2->x_2 = iir2->x_1;
 141:../util/iir_filter.h **** 	iir2->x_1 = in;
 142:../util/iir_filter.h **** 	return res;
 143:../util/iir_filter.h **** }
 144:../util/iir_filter.h **** */
 145:../util/iir_filter.h **** 
 146:../util/iir_filter.h **** q7_8_t filter_iir2(filter_iir2_t* iir2,q7_8_t in)
 147:../util/iir_filter.h **** {
  16               		.loc 1 147 0
  17               		.cfi_startproc
  18               	.LVL0:
  19 0000 A0E0      		ldi r26,0
  20 0002 B0E0      		ldi r27,0
  21 0004 E0E0      		ldi r30,lo8(gs(1f))
  22 0006 F0E0      		ldi r31,hi8(gs(1f))
  23 0008 00C0      		rjmp __prologue_saves__+((18 - 16) * 2)
  24               	1:
  25               	.LCFI0:
  26               		.cfi_offset 4, -2
  27               		.cfi_offset 5, -3
  28               		.cfi_offset 6, -4
  29               		.cfi_offset 7, -5
  30               		.cfi_offset 8, -6
  31               		.cfi_offset 9, -7
  32               		.cfi_offset 10, -8
  33               		.cfi_offset 11, -9
  34               		.cfi_offset 12, -10
  35               		.cfi_offset 13, -11
  36               		.cfi_offset 14, -12
  37               		.cfi_offset 15, -13
  38               		.cfi_offset 16, -14
  39               		.cfi_offset 17, -15
  40               		.cfi_offset 28, -16
  41               		.cfi_offset 29, -17
  42               		.cfi_def_cfa_offset 18
  43               	/* prologue: function */
  44               	/* frame size = 0 */
  45               	/* stack size = 16 */
  46               	.L__stack_usage = 16
  47 000a EC01      		movw r28,r24
  48 000c 8B01      		movw r16,r22
  49               	.LVL1:
 148:../util/iir_filter.h **** 	const q7_8_t a0 = q7_8_float(0.020517392);
 149:../util/iir_filter.h **** 	const q7_8_t a1 = q7_8_float(0.041034784);
 150:../util/iir_filter.h **** 	const q7_8_t a2 = q7_8_float(0.020517392);
 151:../util/iir_filter.h **** 	const q7_8_t inv_b0 = q7_8_float(1/1.0);
 152:../util/iir_filter.h **** 	const q7_8_t _b1 = -q7_8_float(-1.6185197);
 153:../util/iir_filter.h **** 	const q7_8_t _b2 = -q7_8_float(0.71059346);
 154:../util/iir_filter.h **** 
 155:../util/iir_filter.h **** 	q7_8_t res;
 156:../util/iir_filter.h **** 	res =  q7_8_mul(inv_b0,q7_8_sum(
  50               		.loc 1 156 0
  51 000e EC80      		ldd r14,Y+4
  52 0010 FD80      		ldd r15,Y+5
  53 0012 C880      		ld r12,Y
  54 0014 D980      		ldd r13,Y+1
  55 0016 072E      		mov __tmp_reg__,r23
  56 0018 000C      		lsl r0
  57 001a 880B      		sbc r24,r24
  58 001c 990B      		sbc r25,r25
  59               	.LVL2:
  60 001e 25E0      		ldi r18,lo8(5)
  61 0020 30E0      		ldi r19,0
  62 0022 40E0      		ldi r20,0
  63 0024 50E0      		ldi r21,0
  64 0026 00D0      		rcall __mulsi3
  65               	.LVL3:
  66 0028 472E      		mov r4,r23
  67 002a 582E      		mov r5,r24
  68 002c 692E      		mov r6,r25
  69 002e 7724      		clr r7
  70 0030 67FC      		sbrc r6,7
  71 0032 7A94      		dec r7
  72 0034 B701      		movw r22,r14
  73 0036 0F2C      		mov __tmp_reg__,r15
  74 0038 000C      		lsl r0
  75 003a 880B      		sbc r24,r24
  76 003c 990B      		sbc r25,r25
  77 003e 2AE0      		ldi r18,lo8(10)
  78 0040 30E0      		ldi r19,0
  79 0042 40E0      		ldi r20,0
  80 0044 50E0      		ldi r21,0
  81 0046 00D0      		rcall __mulsi3
  82               	.LVL4:
  83 0048 BB27      		clr r27
  84 004a 97FD      		sbrc r25,7
  85 004c BA95      		dec r27
  86 004e A92F      		mov r26,r25
  87 0050 982F      		mov r25,r24
  88 0052 872F      		mov r24,r23
  89 0054 3201      		movw r6,r4
  90 0056 680E      		add r6,r24
  91 0058 791E      		adc r7,r25
  92 005a 6E81      		ldd r22,Y+6
  93 005c 7F81      		ldd r23,Y+7
  94 005e 072E      		mov __tmp_reg__,r23
  95 0060 000C      		lsl r0
  96 0062 880B      		sbc r24,r24
  97 0064 990B      		sbc r25,r25
  98 0066 25E0      		ldi r18,lo8(5)
  99 0068 30E0      		ldi r19,0
 100 006a 40E0      		ldi r20,0
 101 006c 50E0      		ldi r21,0
 102 006e 00D0      		rcall __mulsi3
 103               	.LVL5:
 104 0070 BB27      		clr r27
 105 0072 97FD      		sbrc r25,7
 106 0074 BA95      		dec r27
 107 0076 A92F      		mov r26,r25
 108 0078 982F      		mov r25,r24
 109 007a 872F      		mov r24,r23
 110 007c 4301      		movw r8,r6
 111 007e 880E      		add r8,r24
 112 0080 991E      		adc r9,r25
 113 0082 B601      		movw r22,r12
 114 0084 0D2C      		mov __tmp_reg__,r13
 115 0086 000C      		lsl r0
 116 0088 880B      		sbc r24,r24
 117 008a 990B      		sbc r25,r25
 118 008c 2EE9      		ldi r18,lo8(-98)
 119 008e 31E0      		ldi r19,lo8(1)
 120 0090 40E0      		ldi r20,0
 121 0092 50E0      		ldi r21,0
 122 0094 00D0      		rcall __mulsi3
 123               	.LVL6:
 124 0096 BB27      		clr r27
 125 0098 97FD      		sbrc r25,7
 126 009a BA95      		dec r27
 127 009c A92F      		mov r26,r25
 128 009e 982F      		mov r25,r24
 129 00a0 872F      		mov r24,r23
 130 00a2 5401      		movw r10,r8
 131 00a4 A80E      		add r10,r24
 132 00a6 B91E      		adc r11,r25
 133 00a8 6A81      		ldd r22,Y+2
 134 00aa 7B81      		ldd r23,Y+3
 135 00ac 072E      		mov __tmp_reg__,r23
 136 00ae 000C      		lsl r0
 137 00b0 880B      		sbc r24,r24
 138 00b2 990B      		sbc r25,r25
 139 00b4 2BE4      		ldi r18,lo8(75)
 140 00b6 3FEF      		ldi r19,lo8(-1)
 141 00b8 4FEF      		ldi r20,lo8(-1)
 142 00ba 5FEF      		ldi r21,lo8(-1)
 143 00bc 00D0      		rcall __mulsi3
 144               	.LVL7:
 145 00be BB27      		clr r27
 146 00c0 97FD      		sbrc r25,7
 147 00c2 BA95      		dec r27
 148 00c4 A92F      		mov r26,r25
 149 00c6 982F      		mov r25,r24
 150 00c8 872F      		mov r24,r23
 151 00ca 8A0D      		add r24,r10
 152 00cc 9B1D      		adc r25,r11
 153 00ce 092E      		mov __tmp_reg__,r25
 154 00d0 000C      		lsl r0
 155 00d2 AA0B      		sbc r26,r26
 156 00d4 BB0B      		sbc r27,r27
 157               	.LVL8:
 157:../util/iir_filter.h **** 			q7_8_mul(a0,in),
 158:../util/iir_filter.h **** 			q7_8_mul(a1,iir2->x_1),
 159:../util/iir_filter.h **** 			q7_8_mul(a2,iir2->x_2),
 160:../util/iir_filter.h **** 			q7_8_mul(_b1,iir2->y_1),
 161:../util/iir_filter.h **** 			q7_8_mul(_b2,iir2->y_2)));
 162:../util/iir_filter.h **** 	//printf("%f,",iir2->b0);
 163:../util/iir_filter.h **** 	iir2->y_2 = iir2->y_1;
 158               		.loc 1 163 0
 159 00d6 DB82      		std Y+3,r13
 160 00d8 CA82      		std Y+2,r12
 164:../util/iir_filter.h **** 	iir2->y_1 = res;
 161               		.loc 1 164 0
 162 00da 9983      		std Y+1,r25
 163 00dc 8883      		st Y,r24
 165:../util/iir_filter.h **** 	iir2->x_2 = iir2->x_1;
 164               		.loc 1 165 0
 165 00de FF82      		std Y+7,r15
 166 00e0 EE82      		std Y+6,r14
 166:../util/iir_filter.h **** 	iir2->x_1 = in;
 167               		.loc 1 166 0
 168 00e2 1D83      		std Y+5,r17
 169 00e4 0C83      		std Y+4,r16
 170               	/* epilogue start */
 167:../util/iir_filter.h **** 	return res;
 168:../util/iir_filter.h **** }
 171               		.loc 1 168 0
 172 00e6 CDB7      		in r28,__SP_L__
 173 00e8 DEB7      		in r29,__SP_H__
 174               	.LVL9:
 175 00ea E0E1      		ldi r30, lo8(16)
 176 00ec 00C0      		rjmp __epilogue_restores__ + ((18 - 16) * 2)
 177               		.cfi_endproc
 178               	.LFE21:
 179               		.size	filter_iir2, .-filter_iir2
 180               	.global	__vector_16
 181               		.type	__vector_16, @function
 182               	__vector_16:
 183               	.LFB22:
 184               		.file 2 "main.c"
   1:main.c        **** 
   2:main.c        **** /*
   3:main.c        ****  * jorgen.birkler)a(gmail.com
   4:main.c        ****  */
   5:main.c        **** 
   6:main.c        **** /**
   7:main.c        ****  * @mainpage
   8:main.c        ****  *
   9:main.c        ****  * \section implementation_guide Implementation
  10:main.c        ****  * - \ref software
  11:main.c        ****  * - \ref hardware
  12:main.c        ****  * .
  13:main.c        ****  *
  14:main.c        ****  * (c) 2010 Jorgen Birkler (jorgen.birkler)a(gmail.com)
  15:main.c        ****  *
  16:main.c        ****  * USB driver
  17:main.c        ****  *
  18:main.c        ****  * (c) 2006 by OBJECTIVE DEVELOPMENT Software GmbH
  19:main.c        ****  */
  20:main.c        **** /**
  21:main.c        ****  * \page software Software
  22:main.c        ****  * Uses the firmware only USB low speed driver from http://obdev.at.
  23:main.c        ****  * The USB device is configured as a Mouse HID device.
  24:main.c        ****  *
  25:main.c        ****  * \section tips Tips about HID development
  26:main.c        ****  * General tips about HID development:
  27:main.c        ****  *
  28:main.c        ****  * 1. HID device class is cached by Windows; change USB_CFG_DEVICE_ID if you change USAGE_PAGE
  29:main.c        ****  *    class to another. It took me several weeks to find this info. I copied the use page for the
  30:main.c        ****  *    remote but it never work until I changed the USB_CFG_DEVICE_ID to another number so that the
  31:main.c        ****  *    device was rediscovered by Windows.
  32:main.c        ****  *
  33:main.c        ****  * 2. Added usbconfig.h manually to the dependencies in the make file to all .o files.
  34:main.c        ****  *    WinAVR .d files doesn't seem to work for subdirs
  35:main.c        ****  *
  36:main.c        ****  *
  37:main.c        ****  */
  38:main.c        **** /**
  39:main.c        ****  * \page hardware Hardware
  40:main.c        ****  *
  41:main.c        ****  */
  42:main.c        **** 
  43:main.c        **** #include <avr/io.h>
  44:main.c        **** #include <avr/interrupt.h>
  45:main.c        **** #include <avr/pgmspace.h>
  46:main.c        **** #include <avr/eeprom.h>
  47:main.c        **** #include <avr/wdt.h>
  48:main.c        **** #include <util/delay.h>
  49:main.c        **** #include <util/atomic.h>
  50:main.c        **** 
  51:main.c        **** #include <stdio.h>
  52:main.c        **** #include <string.h>
  53:main.c        **** #include <stdint.h>
  54:main.c        **** #define USB_GET_REPORT_IDS
  55:main.c        **** #include "usbdrv.h"
  56:main.c        **** #include "oddebug.h"
  57:main.c        **** #include "hw.h"
  58:main.c        **** #include "timers.h"
  59:main.c        **** #include "usbstream.h"
  60:main.c        **** #include "lfsr8.h"
  61:main.c        **** #include "iir_filter.h"
  62:main.c        **** 
  63:main.c        **** /*
  64:main.c        ****  * help macros
  65:main.c        ****  */
  66:main.c        **** #ifndef STATIC_ASSERT
  67:main.c        **** #define STATIC_ASSERT(expr) extern char static_assert[ (!!(expr))*2 - 1]
  68:main.c        **** #endif //#ifndef STATIC_ASSERT
  69:main.c        **** #define elements_of(array) (sizeof(array) / sizeof(array[0]))
  70:main.c        **** 
  71:main.c        **** STATIC_ASSERT(((int8_t)(-8))>>1 < 0);
  72:main.c        **** 
  73:main.c        **** /* ------------------------------------------------------------------------- */
  74:main.c        **** /* ------------------------------------------------------------------------- */
  75:main.c        **** /* ----------------------------- USB interface ----------------------------- */
  76:main.c        **** /* ------------------------------------------------------------------------- */
  77:main.c        **** 
  78:main.c        **** /*
  79:main.c        **** ISR(TIMER0_OVF_vect,ISR_NOBLOCK )
  80:main.c        **** {
  81:main.c        **** }
  82:main.c        ****  */
  83:main.c        **** 
  84:main.c        **** STATIC_ASSERT(TIMER0_OVERFLOW_PERIOD_MS_X256 > 2);
  85:main.c        **** STATIC_ASSERT(TIMER0_OVERFLOW_PERIOD_MS_X256 < 60000);
  86:main.c        **** 
  87:main.c        **** #define us_to_ticks(_us_) (((_us_)*F_TIMER1) / 1000000L)
  88:main.c        **** 
  89:main.c        **** STATIC_ASSERT(us_to_ticks(100) > 0);
  90:main.c        **** 
  91:main.c        **** 
  92:main.c        **** static volatile uint16_t capture_diff;
  93:main.c        **** static volatile uint16_t capture_diff_max;
  94:main.c        **** static volatile uint16_t captured;
  95:main.c        **** 
  96:main.c        **** 
  97:main.c        **** ISR(TIMER0_CAPT_vect,ISR_NOBLOCK )
  98:main.c        **** {
 185               		.loc 2 98 0
 186               		.cfi_startproc
 187 00ee 7894      		sei
 188 00f0 1F92      		push r1
 189               	.LCFI1:
 190               		.cfi_def_cfa_offset 3
 191               		.cfi_offset 1, -2
 192 00f2 0F92      		push r0
 193               	.LCFI2:
 194               		.cfi_def_cfa_offset 4
 195               		.cfi_offset 0, -3
 196 00f4 0FB6      		in r0,__SREG__
 197 00f6 0F92      		push r0
 198 00f8 1124      		clr __zero_reg__
 199               	/* prologue: Interrupt */
 200               	/* frame size = 0 */
 201               	/* stack size = 3 */
 202               	.L__stack_usage = 3
 203               	/* epilogue start */
  99:main.c        **** 	/*
 100:main.c        **** 	uint16_t capture_time;
 101:main.c        **** 	uint16_t service_time;
 102:main.c        **** 	service_time = TCNT0L;
 103:main.c        **** 	service_time |= ((unsigned int)TCNT0H << 8);
 104:main.c        **** 	capture_time = OCR0A;
 105:main.c        **** 	capture_time |= ((unsigned int)OCR0B << 8);
 106:main.c        **** 	capture_diff = service_time - capture_time;
 107:main.c        **** 	if (capture_diff > capture_diff_max) {
 108:main.c        **** 		capture_diff_max = capture_diff;
 109:main.c        **** 	}
 110:main.c        **** 	captured++;
 111:main.c        **** */
 112:main.c        **** }
 204               		.loc 2 112 0
 205 00fa 0F90      		pop r0
 206 00fc 0FBE      		out __SREG__,r0
 207 00fe 0F90      		pop r0
 208 0100 1F90      		pop r1
 209 0102 1895      		reti
 210               		.cfi_endproc
 211               	.LFE22:
 212               		.size	__vector_16, .-__vector_16
 213               	.global	usbFunctionSetup2
 214               		.type	usbFunctionSetup2, @function
 215               	usbFunctionSetup2:
 216               	.LFB23:
 113:main.c        **** 
 114:main.c        **** 
 115:main.c        **** 
 116:main.c        **** /*
 117:main.c        **** ISR(TIMER1_OVF_vect,ISR_NOBLOCK)
 118:main.c        **** {
 119:main.c        **** 	timer1_ticks_major++;
 120:main.c        **** }
 121:main.c        **** static uint32_t gettimer1ticks(void)
 122:main.c        **** {
 123:main.c        **** 	uint32_t res;
 124:main.c        **** 	ATOMIC_BLOCK(ATOMIC_RESTORESTATE)
 125:main.c        **** 	{
 126:main.c        **** 		res = TCNT1;
 127:main.c        **** 		res |= timer1_ticks_major<<8;
 128:main.c        **** 	}
 129:main.c        **** 	return res;
 130:main.c        **** }
 131:main.c        **** */
 132:main.c        **** 
 133:main.c        **** 
 134:main.c        **** #define ReportDescriptor usbHidReportDescriptor
 135:main.c        **** 
 136:main.c        **** PROGMEM
 137:main.c        **** #include "hid.h"
 138:main.c        **** 
 139:main.c        **** STATIC_ASSERT(sizeof(usbHidReportDescriptor) == USB_CFG_HID_REPORT_DESCRIPTOR_LENGTH);
 140:main.c        **** 
 141:main.c        **** typedef struct{
 142:main.c        **** 	struct {
 143:main.c        **** 		unsigned char report_id;
 144:main.c        **** 		uchar   buttonMask;
 145:main.c        **** 	} mouse;
 146:main.c        **** }report_t;
 147:main.c        **** 
 148:main.c        **** 
 149:main.c        **** static report_t reportBuffer;
 150:main.c        **** 
 151:main.c        **** 
 152:main.c        **** usbMsgLen_t usbFunctionSetup2(uchar data[8])
 153:main.c        **** {
 217               		.loc 2 153 0
 218               		.cfi_startproc
 219               	.LVL10:
 220               	/* prologue: function */
 221               	/* frame size = 0 */
 222               	/* stack size = 0 */
 223               	.L__stack_usage = 0
 154:main.c        **** 	usbRequest_t    *rq = (void *)data;
 155:main.c        **** 
 156:main.c        **** 	/* The following requests are never used. But since they are required by
 157:main.c        **** 	 * the specification, we implement them in this example.
 158:main.c        **** 	 *
 159:main.c        **** 	 */
 160:main.c        **** 	if((rq->bmRequestType & USBRQ_TYPE_MASK) == USBRQ_TYPE_CLASS){    /* class request type */
 161:main.c        **** 		DBG1(0x50, &rq->bRequest, 1);   /* debug output: print our request */
 162:main.c        **** 		if(rq->bRequest == USBRQ_HID_GET_REPORT){  /* wValue: ReportType (highbyte), ReportID (lowbyte) *
 163:main.c        **** 			switch (rq->wValue.bytes[0]) {
 164:main.c        **** 			default:
 165:main.c        **** 				break;
 166:main.c        **** 			}
 167:main.c        **** 
 168:main.c        **** 		}
 169:main.c        **** 	}else{
 170:main.c        **** 		/* no vendor specific requests implemented */
 171:main.c        **** 	}
 172:main.c        **** 	return 0;   /* default for not implemented requests: return no data back to host */
 173:main.c        **** }
 224               		.loc 2 173 0
 225 0104 80E0      		ldi r24,0
 226               	.LVL11:
 227 0106 0895      		ret
 228               		.cfi_endproc
 229               	.LFE23:
 230               		.size	usbFunctionSetup2, .-usbFunctionSetup2
 231               	.global	unpack_color_red
 232               		.type	unpack_color_red, @function
 233               	unpack_color_red:
 234               	.LFB24:
 174:main.c        **** 
 175:main.c        **** 
 176:main.c        **** typedef struct {
 177:main.c        **** 	char buffer[64];
 178:main.c        **** 	uchar bufLen;
 179:main.c        **** } stdin_get_string_t;
 180:main.c        **** 
 181:main.c        **** 
 182:main.c        **** 
 183:main.c        **** typedef uint8_t rgb332_t;
 184:main.c        **** 
 185:main.c        **** /*
 186:main.c        **** static inline
 187:main.c        **** #define RGB888_RGB332(r,g,b)
 188:main.c        **** */
 189:main.c        **** 
 190:main.c        **** enum {
 191:main.c        **** 	RED,GREEN,BLUE,COLORS
 192:main.c        **** };
 193:main.c        **** 
 194:main.c        **** typedef struct RGB888_ {
 195:main.c        **** 	uint8_t color_[COLORS];
 196:main.c        **** } RGB888;
 197:main.c        **** 
 198:main.c        **** uint8_t unpack_color_red(rgb332_t rgb) {
 235               		.loc 2 198 0
 236               		.cfi_startproc
 237               	.LVL12:
 238               	/* prologue: function */
 239               	/* frame size = 0 */
 240               	/* stack size = 0 */
 241               	.L__stack_usage = 0
 199:main.c        **** 	uint8_t base = rgb >> 5;
 200:main.c        **** 	base &= ~0b111;
 201:main.c        **** 	uint8_t res = base << 5;
 202:main.c        **** 	res |= base << 2;
 203:main.c        **** 	res |= base >> 1;
 204:main.c        **** 	return res;
 205:main.c        **** }
 242               		.loc 2 205 0
 243 0108 80E0      		ldi r24,0
 244               	.LVL13:
 245 010a 0895      		ret
 246               		.cfi_endproc
 247               	.LFE24:
 248               		.size	unpack_color_red, .-unpack_color_red
 249               	.global	unpack_color_green
 250               		.type	unpack_color_green, @function
 251               	unpack_color_green:
 252               	.LFB25:
 206:main.c        **** 
 207:main.c        **** 
 208:main.c        **** uint8_t unpack_color_green(rgb332_t rgb) {
 253               		.loc 2 208 0
 254               		.cfi_startproc
 255               	.LVL14:
 256               	/* prologue: function */
 257               	/* frame size = 0 */
 258               	/* stack size = 0 */
 259               	.L__stack_usage = 0
 209:main.c        **** 	uint8_t base = rgb >> 2;
 260               		.loc 2 209 0
 261 010c 8695      		lsr r24
 262 010e 8695      		lsr r24
 263               	.LVL15:
 210:main.c        **** 	base &= ~0b111;
 264               		.loc 2 210 0
 265 0110 982F      		mov r25,r24
 266 0112 987F      		andi r25,lo8(-8)
 267               	.LVL16:
 211:main.c        **** 	uint8_t res = base << 5;
 212:main.c        **** 	res |= base << 2;
 268               		.loc 2 212 0
 269 0114 892F      		mov r24,r25
 270 0116 880F      		lsl r24
 271 0118 880F      		lsl r24
 272               	.LVL17:
 213:main.c        **** 	res |= base >> 1;
 214:main.c        **** 	return res;
 273               		.loc 2 214 0
 274 011a 9695      		lsr r25
 275               	.LVL18:
 215:main.c        **** }
 276               		.loc 2 215 0
 277 011c 892B      		or r24,r25
 278               	.LVL19:
 279 011e 0895      		ret
 280               		.cfi_endproc
 281               	.LFE25:
 282               		.size	unpack_color_green, .-unpack_color_green
 283               	.global	unpack_color_blue
 284               		.type	unpack_color_blue, @function
 285               	unpack_color_blue:
 286               	.LFB26:
 216:main.c        **** 
 217:main.c        **** uint8_t unpack_color_blue(rgb332_t rgb) {
 287               		.loc 2 217 0
 288               		.cfi_startproc
 289               	.LVL20:
 290               	/* prologue: function */
 291               	/* frame size = 0 */
 292               	/* stack size = 0 */
 293               	.L__stack_usage = 0
 218:main.c        **** 	uint8_t base = rgb;
 219:main.c        **** 	base &= ~0b11;
 294               		.loc 2 219 0
 295 0120 8C7F      		andi r24,lo8(-4)
 296               	.LVL21:
 220:main.c        **** 	uint8_t res = base << 6;
 221:main.c        **** 	res |= base << 4;
 297               		.loc 2 221 0
 298 0122 282F      		mov r18,r24
 299 0124 30E0      		ldi r19,0
 300               	.LVL22:
 222:main.c        **** 	res |= base << 2;
 301               		.loc 2 222 0
 302 0126 A901      		movw r20,r18
 303 0128 94E0      		ldi r25,4
 304               		1:
 305 012a 440F      		lsl r20
 306 012c 551F      		rol r21
 307 012e 9A95      		dec r25
 308 0130 01F4      		brne 1b
 309               	.LVL23:
 310 0132 220F      		lsl r18
 311 0134 331F      		rol r19
 312 0136 220F      		lsl r18
 313 0138 331F      		rol r19
 314 013a 242B      		or r18,r20
 315               	.LVL24:
 223:main.c        **** 	res |= base << 0;
 224:main.c        **** 	return res;
 225:main.c        **** }
 316               		.loc 2 225 0
 317 013c 822B      		or r24,r18
 318               	.LVL25:
 319 013e 0895      		ret
 320               		.cfi_endproc
 321               	.LFE26:
 322               		.size	unpack_color_blue, .-unpack_color_blue
 323               	.global	send_strip_byte
 324               		.type	send_strip_byte, @function
 325               	send_strip_byte:
 326               	.LFB27:
 226:main.c        **** #define nop() __builtin_avr_nop()  //asm volatile(" nop \n\t")
 227:main.c        **** 
 228:main.c        **** 
 229:main.c        **** void send_strip_byte(uint8_t byteval) {
 327               		.loc 2 229 0
 328               		.cfi_startproc
 329               	.LVL26:
 330               	/* prologue: function */
 331               	/* frame size = 0 */
 332               	/* stack size = 0 */
 333               	.L__stack_usage = 0
 334               		.loc 2 229 0
 335 0140 98E0      		ldi r25,lo8(8)
 336               	.LVL27:
 337               	.L10:
 338               	.LBB15:
 230:main.c        **** 	uint8_t temp = byteval;
 231:main.c        **** 	for (uint8_t i=0;i<8;++i) {
 232:main.c        **** 		if (temp & 0b10000000) {
 339               		.loc 2 232 0
 340 0142 87FF      		sbrs r24,7
 341 0144 00C0      		rjmp .L8
 233:main.c        **** 			STRIP_DATA_1();
 342               		.loc 2 233 0
 343 0146 DE9A      		sbi 0x1b,6
 344 0148 00C0      		rjmp .L9
 345               	.L8:
 234:main.c        **** 		} else {
 235:main.c        **** 			STRIP_DATA_0();
 346               		.loc 2 235 0
 347 014a DE98      		cbi 0x1b,6
 348               	.L9:
 236:main.c        **** 		}
 237:main.c        **** 		STRIP_CLK_HIGH();
 349               		.loc 2 237 0 discriminator 2
 350 014c DF9A      		sbi 0x1b,7
 238:main.c        **** 		temp <<=1;
 351               		.loc 2 238 0 discriminator 2
 352 014e 880F      		lsl r24
 353               	.LVL28:
 239:main.c        **** 		STRIP_CLK_LOW();
 354               		.loc 2 239 0 discriminator 2
 355 0150 DF98      		cbi 0x1b,7
 356               	.LVL29:
 357 0152 9150      		subi r25,lo8(-(-1))
 358               	.LVL30:
 231:main.c        **** 		if (temp & 0b10000000) {
 359               		.loc 2 231 0 discriminator 2
 360 0154 01F4      		brne .L10
 361               	/* epilogue start */
 362               	.LBE15:
 240:main.c        **** 	}
 241:main.c        **** }
 363               		.loc 2 241 0
 364 0156 0895      		ret
 365               		.cfi_endproc
 366               	.LFE27:
 367               		.size	send_strip_byte, .-send_strip_byte
 368               	.global	send_color
 369               		.type	send_color, @function
 370               	send_color:
 371               	.LFB28:
 242:main.c        **** 
 243:main.c        **** 
 244:main.c        **** 
 245:main.c        **** void send_color(uint8_t r,uint8_t g,uint8_t b) {
 372               		.loc 2 245 0
 373               		.cfi_startproc
 374               	.LVL31:
 375 0158 1F93      		push r17
 376               	.LCFI3:
 377               		.cfi_def_cfa_offset 3
 378               		.cfi_offset 17, -2
 379 015a CF93      		push r28
 380               	.LCFI4:
 381               		.cfi_def_cfa_offset 4
 382               		.cfi_offset 28, -3
 383 015c DF93      		push r29
 384               	.LCFI5:
 385               		.cfi_def_cfa_offset 5
 386               		.cfi_offset 29, -4
 387               	/* prologue: function */
 388               	/* frame size = 0 */
 389               	/* stack size = 3 */
 390               	.L__stack_usage = 3
 391 015e 182F      		mov r17,r24
 392 0160 D62F      		mov r29,r22
 393 0162 C42F      		mov r28,r20
 394               	.LVL32:
 246:main.c        **** 	const uint8_t start_byte = 0xFF;
 247:main.c        **** 	send_strip_byte(start_byte);
 395               		.loc 2 247 0
 396 0164 8FEF      		ldi r24,lo8(-1)
 397               	.LVL33:
 398 0166 00D0      		rcall send_strip_byte
 399               	.LVL34:
 248:main.c        **** 	send_strip_byte(r);
 400               		.loc 2 248 0
 401 0168 812F      		mov r24,r17
 402 016a 00D0      		rcall send_strip_byte
 403               	.LVL35:
 249:main.c        **** 	send_strip_byte(g);
 404               		.loc 2 249 0
 405 016c 8D2F      		mov r24,r29
 406 016e 00D0      		rcall send_strip_byte
 407               	.LVL36:
 250:main.c        **** 	send_strip_byte(b);
 408               		.loc 2 250 0
 409 0170 8C2F      		mov r24,r28
 410 0172 00D0      		rcall send_strip_byte
 411               	.LVL37:
 412               	/* epilogue start */
 251:main.c        **** }
 413               		.loc 2 251 0
 414 0174 DF91      		pop r29
 415               	.LVL38:
 416 0176 CF91      		pop r28
 417               	.LVL39:
 418 0178 1F91      		pop r17
 419               	.LVL40:
 420 017a 0895      		ret
 421               		.cfi_endproc
 422               	.LFE28:
 423               		.size	send_color, .-send_color
 424               	.global	getRainbowColor
 425               		.type	getRainbowColor, @function
 426               	getRainbowColor:
 427               	.LFB29:
 252:main.c        **** 
 253:main.c        **** 
 254:main.c        **** /* ------------------------------------------------------------------------- */
 255:main.c        **** 
 256:main.c        **** 
 257:main.c        **** RGB888 rainbow_colors[7] = {
 258:main.c        **** 		{{200,0,200}},
 259:main.c        **** 		{{200,0,0}},
 260:main.c        **** 		{{200,200,0}},
 261:main.c        **** 		{{0,200,0}},
 262:main.c        **** 		{{0,200,200}},
 263:main.c        **** 		{{0,0,200}},
 264:main.c        **** 		{{200,0,200}}
 265:main.c        **** };
 266:main.c        **** 
 267:main.c        **** 
 268:main.c        **** RGB888 getRainbowColor(int index) {
 428               		.loc 2 268 0
 429               		.cfi_startproc
 430               	.LVL41:
 431 017c A9E0      		ldi r26,lo8(9)
 432 017e B0E0      		ldi r27,0
 433 0180 E0E0      		ldi r30,lo8(gs(1f))
 434 0182 F0E0      		ldi r31,hi8(gs(1f))
 435 0184 00C0      		rjmp __prologue_saves__+((18 - 12) * 2)
 436               	1:
 437               	.LCFI6:
 438               		.cfi_offset 8, -2
 439               		.cfi_offset 9, -3
 440               		.cfi_offset 10, -4
 441               		.cfi_offset 11, -5
 442               		.cfi_offset 12, -6
 443               		.cfi_offset 13, -7
 444               		.cfi_offset 14, -8
 445               		.cfi_offset 15, -9
 446               		.cfi_offset 16, -10
 447               		.cfi_offset 17, -11
 448               		.cfi_offset 28, -12
 449               		.cfi_offset 29, -13
 450               		.cfi_def_cfa 28, 23
 451               	/* prologue: function */
 452               	/* frame size = 9 */
 453               	/* stack size = 21 */
 454               	.L__stack_usage = 21
 455 0186 9C01      		movw r18,r24
 456               	.LVL42:
 269:main.c        **** 	//300/6 = 50 ~ 64
 270:main.c        **** 	const int steps = 32;
 271:main.c        **** 
 272:main.c        **** 
 273:main.c        **** 	int rainbow_index = index / steps;
 457               		.loc 2 273 0
 458 0188 97FD      		sbrc r25,7
 459 018a 4F96      		adiw r24,31
 460               	.LVL43:
 461               	.L15:
 462 018c 45E0      		ldi r20,5
 463               		1:
 464 018e 9595      		asr r25
 465 0190 8795      		ror r24
 466 0192 4A95      		dec r20
 467 0194 01F4      		brne 1b
 468               	.LVL44:
 274:main.c        **** 	rainbow_index %= 6;
 469               		.loc 2 274 0
 470 0196 66E0      		ldi r22,lo8(6)
 471 0198 70E0      		ldi r23,0
 472 019a 00D0      		rcall __divmodhi4
 473               	.LVL45:
 474 019c FC01      		movw r30,r24
 475               	.LVL46:
 275:main.c        **** 	int interpolate_index = index % steps;
 476               		.loc 2 275 0
 477 019e C901      		movw r24,r18
 478               	.LVL47:
 479 01a0 60E2      		ldi r22,lo8(32)
 480 01a2 70E0      		ldi r23,0
 481 01a4 00D0      		rcall __divmodhi4
 482 01a6 7C01      		movw r14,r24
 483               	.LVL48:
 276:main.c        **** 	int weight_from = 64-interpolate_index;
 484               		.loc 2 276 0
 485 01a8 A0E4      		ldi r26,lo8(64)
 486 01aa B0E0      		ldi r27,0
 487 01ac 4D01      		movw r8,r26
 488 01ae 881A      		sub r8,r24
 489 01b0 990A      		sbc r9,r25
 490               	.LVL49:
 277:main.c        **** 	int weight_to = interpolate_index;
 278:main.c        **** 
 279:main.c        **** 	RGB888 from = rainbow_colors[rainbow_index];
 491               		.loc 2 279 0
 492 01b2 CF01      		movw r24,r30
 493 01b4 63E0      		ldi r22,lo8(3)
 494 01b6 70E0      		ldi r23,0
 495 01b8 00D0      		rcall __mulhi3
 496 01ba 8050      		subi r24,lo8(-(rainbow_colors))
 497 01bc 9040      		sbci r25,hi8(-(rainbow_colors))
 498 01be DC01      		movw r26,r24
 499 01c0 2D91      		ld r18,X+
 500 01c2 3D91      		ld r19,X+
 501 01c4 4C91      		ld r20,X
 502               	.LVL50:
 503 01c6 2F83      		std Y+7,r18
 504 01c8 3887      		std Y+8,r19
 505 01ca 4987      		std Y+9,r20
 280:main.c        **** 	RGB888 to = rainbow_colors[rainbow_index+1];
 506               		.loc 2 280 0
 507 01cc CF01      		movw r24,r30
 508 01ce 0196      		adiw r24,1
 509 01d0 63E0      		ldi r22,lo8(3)
 510 01d2 70E0      		ldi r23,0
 511 01d4 00D0      		rcall __mulhi3
 512 01d6 8050      		subi r24,lo8(-(rainbow_colors))
 513 01d8 9040      		sbci r25,hi8(-(rainbow_colors))
 514 01da FC01      		movw r30,r24
 515               	.LVL51:
 516 01dc 2081      		ld  r18,Z
 517 01de 3181      		ldd r19,Z+1
 518 01e0 4281      		ldd r20,Z+2
 519 01e2 2C83      		std Y+4,r18
 520 01e4 3D83      		std Y+5,r19
 521 01e6 4E83      		std Y+6,r20
 522               	.LVL52:
 523 01e8 FE01      		movw r30,r28
 524 01ea 3796      		adiw r30,7
 525 01ec 6E01      		movw r12,r28
 526 01ee 84E0      		ldi r24,4
 527 01f0 C80E      		add r12,r24
 528 01f2 D11C      		adc r13,__zero_reg__
 529 01f4 8E01      		movw r16,r28
 530 01f6 0F5F      		subi r16,-1
 531 01f8 1F4F      		sbci r17,-1
 532 01fa 5E01      		movw r10,r28
 533 01fc AAE0      		ldi r26,10
 534 01fe AA0E      		add r10,r26
 535 0200 B11C      		adc r11,__zero_reg__
 536               	.LVL53:
 537               	.L16:
 538               	.LBB16:
 539               	.LBB17:
 281:main.c        **** 
 282:main.c        **** 	RGB888 res;
 283:main.c        **** 	for (int c=0;c<COLORS;c++) {
 284:main.c        **** 		uint16_t temp = from.color_[c] * weight_from + to.color_[c] * weight_to;
 540               		.loc 2 284 0 discriminator 3
 541 0202 8191      		ld r24,Z+
 542 0204 D601      		movw r26,r12
 543 0206 4D91      		ld r20,X+
 544 0208 6D01      		movw r12,r26
 545 020a 90E0      		ldi r25,0
 546 020c B401      		movw r22,r8
 547 020e 00D0      		rcall __mulhi3
 548 0210 9C01      		movw r18,r24
 549 0212 842F      		mov r24,r20
 550 0214 90E0      		ldi r25,0
 551 0216 B701      		movw r22,r14
 552 0218 00D0      		rcall __mulhi3
 553 021a 820F      		add r24,r18
 554 021c 931F      		adc r25,r19
 555               	.LVL54:
 285:main.c        **** 		temp /= steps;
 286:main.c        **** 		temp /= 2;
 287:main.c        **** 		res.color_[c] = temp;
 556               		.loc 2 287 0 discriminator 3
 557 021e 26E0      		ldi r18,6
 558               		1:
 559 0220 9695      		lsr r25
 560 0222 8795      		ror r24
 561 0224 2A95      		dec r18
 562 0226 01F4      		brne 1b
 563               	.LVL55:
 564 0228 D801      		movw r26,r16
 565 022a 8D93      		st X+,r24
 566 022c 8D01      		movw r16,r26
 567               	.LBE17:
 283:main.c        **** 		uint16_t temp = from.color_[c] * weight_from + to.color_[c] * weight_to;
 568               		.loc 2 283 0 discriminator 3
 569 022e AE16      		cp r10,r30
 570 0230 BF06      		cpc r11,r31
 571 0232 01F4      		brne .L16
 572               	.LBE16:
 288:main.c        **** 	}
 289:main.c        **** 	return res;
 573               		.loc 2 289 0
 574 0234 6981      		ldd r22,Y+1
 575 0236 7A81      		ldd r23,Y+2
 576 0238 8B81      		ldd r24,Y+3
 577               	/* epilogue start */
 290:main.c        **** }
 578               		.loc 2 290 0
 579 023a 2996      		adiw r28,9
 580 023c ECE0      		ldi r30, lo8(12)
 581 023e 00C0      		rjmp __epilogue_restores__ + ((18 - 12) * 2)
 582               		.cfi_endproc
 583               	.LFE29:
 584               		.size	getRainbowColor, .-getRainbowColor
 585               		.section	.text.startup,"ax",@progbits
 586               	.global	main
 587               		.type	main, @function
 588               	main:
 589               	.LFB32:
 291:main.c        **** 
 292:main.c        **** 
 293:main.c        **** 
 294:main.c        **** 
 295:main.c        **** 
 296:main.c        **** static void setColor(int numLedsOn, uint8_t r,uint8_t g,uint8_t b) {
 297:main.c        **** 	const int totalLeds = 400;
 298:main.c        **** 	send_strip_byte(0);
 299:main.c        **** 	send_strip_byte(0);
 300:main.c        **** 	send_strip_byte(0);
 301:main.c        **** 	send_strip_byte(0);
 302:main.c        **** 	send_strip_byte(0);
 303:main.c        **** 
 304:main.c        **** 	send_strip_byte(0);
 305:main.c        **** 
 306:main.c        **** 
 307:main.c        **** //	send_color(0,255,0);
 308:main.c        **** //	send_color(0,0,255);
 309:main.c        **** //	send_color(255,0,0);
 310:main.c        **** //	send_color(0,255,255);
 311:main.c        **** 
 312:main.c        **** 	for (int i=0;i<numLedsOn;i++) {
 313:main.c        **** 		send_color(b,g,r);
 314:main.c        **** 		send_color(0,0,0);
 315:main.c        **** 		send_color(0,0,0);
 316:main.c        **** 		send_color(0,0,0);
 317:main.c        **** 		send_color(0,0,0);
 318:main.c        **** 		send_color(0,0,0);
 319:main.c        **** 	}
 320:main.c        **** 	for (int i=0;i<totalLeds;i++) {
 321:main.c        **** 		send_color(0,0,0);
 322:main.c        **** 	}
 323:main.c        **** 	for (int i=0;i<totalLeds;i++) {
 324:main.c        **** 		send_strip_byte(0xFF);
 325:main.c        **** 	}
 326:main.c        **** }
 327:main.c        **** 
 328:main.c        **** 
 329:main.c        **** static void setColorOneLed(int numLedOn, uint8_t r,uint8_t g,uint8_t b) {
 330:main.c        **** 	const int totalLeds = 300;
 331:main.c        **** 	send_strip_byte(0);
 332:main.c        **** 	send_strip_byte(0);
 333:main.c        **** 	send_strip_byte(0);
 334:main.c        **** 	send_strip_byte(0);
 335:main.c        **** 	send_strip_byte(0);
 336:main.c        **** 
 337:main.c        **** //	send_color(0,255,0);
 338:main.c        **** //	send_color(0,0,255);
 339:main.c        **** //	send_color(255,0,0);
 340:main.c        **** //	send_color(0,255,255);
 341:main.c        **** 
 342:main.c        **** 	/*
 343:main.c        **** 	for (int i=0;i<numLedOn;i++) {
 344:main.c        **** 		send_color(b,g,r);
 345:main.c        **** 		send_color(0,0,0);
 346:main.c        **** 		send_color(0,0,0);
 347:main.c        **** 		send_color(0,0,0);
 348:main.c        **** 		send_color(0,0,0);
 349:main.c        **** 	}*/
 350:main.c        **** 	//send_color(b,g,r);
 351:main.c        **** 	//send_color(b,g,r);
 352:main.c        **** 	//send_color(b,g,r);
 353:main.c        **** 	//send_color(b,g,r);
 354:main.c        **** 	for (int i=0;i<totalLeds;i++) {
 355:main.c        **** 		RGB888 rgb;
 356:main.c        **** 		
 357:main.c        **** 		if (i < numLedOn) {
 358:main.c        **** 			rgb = getRainbowColor(i);
 359:main.c        **** 		} else {
 360:main.c        **** 			rgb.color_[0] = 0;
 361:main.c        **** 			rgb.color_[1] = 0;
 362:main.c        **** 			rgb.color_[2] = 0;
 363:main.c        **** 		}
 364:main.c        **** 		send_color(rgb.color_[RED],rgb.color_[GREEN],rgb.color_[BLUE]);
 365:main.c        **** 	}
 366:main.c        **** 	for (int i=0;i<totalLeds/2;i++) {
 367:main.c        **** 		send_strip_byte(0x00);
 368:main.c        **** 	}
 369:main.c        **** }
 370:main.c        **** 
 371:main.c        **** 
 372:main.c        **** 
 373:main.c        **** int main(void)
 374:main.c        **** {
 590               		.loc 2 374 0
 591               		.cfi_startproc
 592 0000 A8E0      		ldi r26,lo8(8)
 593 0002 B0E0      		ldi r27,0
 594 0004 E0E0      		ldi r30,lo8(gs(1f))
 595 0006 F0E0      		ldi r31,hi8(gs(1f))
 596 0008 00C0      		rjmp __prologue_saves__+((18 - 18) * 2)
 597               	1:
 598               	.LCFI7:
 599               		.cfi_offset 2, -2
 600               		.cfi_offset 3, -3
 601               		.cfi_offset 4, -4
 602               		.cfi_offset 5, -5
 603               		.cfi_offset 6, -6
 604               		.cfi_offset 7, -7
 605               		.cfi_offset 8, -8
 606               		.cfi_offset 9, -9
 607               		.cfi_offset 10, -10
 608               		.cfi_offset 11, -11
 609               		.cfi_offset 12, -12
 610               		.cfi_offset 13, -13
 611               		.cfi_offset 14, -14
 612               		.cfi_offset 15, -15
 613               		.cfi_offset 16, -16
 614               		.cfi_offset 17, -17
 615               		.cfi_offset 28, -18
 616               		.cfi_offset 29, -19
 617               		.cfi_def_cfa 28, 28
 618               	/* prologue: function */
 619               	/* frame size = 8 */
 620               	/* stack size = 26 */
 621               	.L__stack_usage = 26
 622               	.LVL56:
 375:main.c        **** 	unsigned char buttonPressed = 0;
 376:main.c        **** 	unsigned char buttonMask = 0;
 377:main.c        **** 	unsigned char led_sensor_blink = 0;
 378:main.c        **** 	filter_iir2_t filter_iir2_data = {0,0,0,0};
 623               		.loc 2 378 0
 624 000a 88E0      		ldi r24,lo8(8)
 625 000c 9E01      		movw r18,r28
 626 000e 2F5F      		subi r18,-1
 627 0010 3F4F      		sbci r19,-1
 628 0012 6901      		movw r12,r18
 629 0014 F901      		movw r30,r18
 630 0016 282F      		mov r18,r24
 631               		0:
 632 0018 1192      		st Z+,__zero_reg__
 633 001a 2A95      		dec r18
 634 001c 01F4      		brne 0b
 635               	.LVL57:
 636               	.LBB32:
 637               	.LBB33:
 638               		.file 3 "../hw.h"
   1:../hw.h       **** /**
   2:../hw.h       ****  * Copyright 2007 Jorgen Birkler
   3:../hw.h       ****  * jorgen.birkler)a(gmail.com
   4:../hw.h       ****  * USB HID device for current monitoring and battery switch on-off
   5:../hw.h       ****  * License: GNU GPL v2 (see License.txt) or proprietary (contact author)
   6:../hw.h       ****  */
   7:../hw.h       **** 
   8:../hw.h       **** #ifndef __hw_h_included__
   9:../hw.h       **** #define __hw_h_included__
  10:../hw.h       **** #include <avr/io.h>
  11:../hw.h       **** 
  12:../hw.h       **** #define BOOTLOADER_CONDITION_INIT()   DDRA &= ~_BV(PA3);PORTA |= _BV(PA3)
  13:../hw.h       **** #define BOOTLOADER_CONDITION (bit_is_clear(PINA,PA3))
  14:../hw.h       **** 
  15:../hw.h       **** 
  16:../hw.h       **** #define LED_RED_CHANGE() PORTB ^= _BV(PB3)
  17:../hw.h       **** #define LED_RED_ON() PORTB |= _BV(PB3)
  18:../hw.h       **** #define LED_RED_OFF() PORTB &= ~_BV(PB3)
  19:../hw.h       **** #define LED_RED_INIT() DDRB |= _BV(PB3);PORTB &= ~_BV(PB3);LED_RED_OFF()
  20:../hw.h       **** 
  21:../hw.h       **** #define LED_SENSOR_CHANGE() DDRA |= _BV(PA2);DDRB |= _BV(PB0);PORTB ^= _BV(PB0);PORTA &= ~_BV(PA2)
  22:../hw.h       **** #define LED_SENSOR_ON() DDRA |= _BV(PA2);DDRB |= _BV(PB0);PORTB |= _BV(PB0); PORTA &= ~_BV(PA2)
  23:../hw.h       **** #define LED_SENSOR_OFF() DDRA |= _BV(PA2);DDRB |= _BV(PB0);PORTB &= ~_BV(PB0); PORTA &= ~_BV(PA2)
  24:../hw.h       **** #define LED_SENSOR_INIT() LED_SENSOR_OFF()
  25:../hw.h       **** #define LED_SENSOR_REVERSE_BIAS()  PORTA |= _BV(PA2);DDRA |= _BV(PA2);DDRB |= _BV(PB0);PORTB &= ~_B
  26:../hw.h       **** #define LED_SENSOR_INPUT() DDRA &= ~_BV(PA2);PORTA &= ~_BV(PA2)
  27:../hw.h       **** #define LED_SENSOR_IS_HIGH() (PINA & _BV(PA2))
  28:../hw.h       **** 
  29:../hw.h       **** #define STRIP_DATA_1() PORTA |= _BV(PA6)
  30:../hw.h       **** #define STRIP_DATA_0() PORTA &= ~_BV(PA6)
  31:../hw.h       **** #define STRIP_CLK_HIGH() PORTA |= _BV(PA7)
  32:../hw.h       **** #define STRIP_CLK_LOW() PORTA &= ~_BV(PA7)
  33:../hw.h       **** 
  34:../hw.h       **** //#define STRIP_CHANGE() PORTA ^= _BV(PA7) | _BV(PA6)
  35:../hw.h       **** 
  36:../hw.h       **** #define STRIP_INIT() DDRA |= _BV(PA6) | _BV(PA7);PORTB &= ~(_BV(PA6) | _BV(PA7))
  37:../hw.h       **** 
  38:../hw.h       **** 
  39:../hw.h       **** 
  40:../hw.h       **** 
  41:../hw.h       **** //#define LED_SENSOR_CHANGE() DDRA |= _BV(PA2);DDRB |= _BV(PB0);PORTB ^= _BV(PB0);PORTA &= ~_BV(PA2
  42:../hw.h       **** //#define LED_SENSOR_ON() DDRA |= _BV(PA2);DDRB |= _BV(PB0);PORTB |= _BV(PB0); PORTA &= ~_BV(PA2)
  43:../hw.h       **** //#define LED_SENSOR_OFF() DDRA |= _BV(PA2);DDRB |= _BV(PB0);PORTB &= ~_BV(PB0); PORTA &= ~_BV(PA2)
  44:../hw.h       **** //#define LED_SENSOR_INIT() LED_SENSOR_OFF()
  45:../hw.h       **** //#define LED_SENSOR_REVERSE_BIAS()  PORTA |= _BV(PA2);DDRA |= _BV(PA2);DDRB |= _BV(PB0);PORTB &= ~
  46:../hw.h       **** //#define LED_SENSOR_INPUT() DDRB &= ~_BV(PB0)
  47:../hw.h       **** //#define LED_SENSOR_IS_HIGH() (PINB & _BV(PB0))
  48:../hw.h       **** 
  49:../hw.h       **** 
  50:../hw.h       **** 
  51:../hw.h       **** #define LED_BUTTON_CHANGE() PORTB ^= _BV(PB1)
  52:../hw.h       **** #define LED_BUTTON_ON() PORTB |= _BV(PB1)
  53:../hw.h       **** #define LED_BUTTON_OFF() PORTB &= ~_BV(PB1)
  54:../hw.h       **** #define LED_BUTTON_INIT() DDRB |= _BV(PB1);PORTB &= ~_BV(PB1);LED_BUTTON_OFF()
  55:../hw.h       **** 
  56:../hw.h       **** #define BUTTON_INIT() DDRA &= ~_BV(PA4);PORTA |= _BV(PA4)
  57:../hw.h       **** #define BUTTON_IS_PRESSED() (!(PINA & _BV(PA4)))
  58:../hw.h       **** 
  59:../hw.h       **** #define POT_ON() PORTA |= _BV(PA0)
  60:../hw.h       **** #define POT_OFF() PORTA &= ~_BV(PA0)
  61:../hw.h       **** #define POT_INIT() DDRA |= _BV(PA0);DDRA &= ~_BV(PA1);PORTA &= ~_BV(PA1);POT_OFF()
  62:../hw.h       **** #define POT_ADC_SETUP() ADCSRA = _BV(ADEN) | _BV(ADIF) | _BV(ADPS1) | _BV(ADPS0);ADCSRB = 0x00
  63:../hw.h       **** 
  64:../hw.h       **** #define POT_ADC_START() ADMUX = 0x1;ADCSRA |= _BV(ADSC)
  65:../hw.h       **** #define POT_ADC_DONE() ADCSRA |= _BV(ADIF)
  66:../hw.h       **** 
  67:../hw.h       **** #define POT_ADC_IS_POT_CHANNEL() ((ADMUX & 0x3F) == 0x1)
  68:../hw.h       **** 
  69:../hw.h       **** #define POT_ADC_IS_COMPLETED() (!(!(ADCSRA | _BV(ADIF))))
  70:../hw.h       **** 
  71:../hw.h       **** //Channel =ADC2
  72:../hw.h       **** //#define LED_SENSOR_ADC_CH 0x02
  73:../hw.h       **** 
  74:../hw.h       **** 
  75:../hw.h       **** // Channel= (ADC2-ADC1) x 20
  76:../hw.h       **** #define LED_SENSOR_ADC_CH 0x0E
  77:../hw.h       **** 
  78:../hw.h       **** 
  79:../hw.h       **** #define LED_SENSOR_ADC_SETUP() POT_OFF();ADCSRA = _BV(ADEN) | _BV(ADIF) | _BV(ADPS1) | _BV(ADPS0);A
  80:../hw.h       **** 
  81:../hw.h       **** #define LED_SENSOR_ADC_START() ADMUX = _BV(REFS1) | LED_SENSOR_ADC_CH;ADCSRA |= _BV(ADSC)
  82:../hw.h       **** #define LED_SENSOR_ADC_DONE() ADCSRA |= _BV(ADIF)
  83:../hw.h       **** 
  84:../hw.h       **** #define LED_SENSOR_ADC_IS_LED_SENSOR_CHANNEL() ((ADMUX & 0x3F) == LED_SENSOR_ADC_CH)
  85:../hw.h       **** 
  86:../hw.h       **** #define LED_SENSOR_ADC_IS_COMPLETED() (!(!(ADCSRA & _BV(ADIF))))
  87:../hw.h       **** 
  88:../hw.h       **** 
  89:../hw.h       **** 
  90:../hw.h       **** //Timer0
  91:../hw.h       **** ////////////////////////////////////
  92:../hw.h       **** 
  93:../hw.h       **** 
  94:../hw.h       **** //16bit mode. clk/1. Input capture on. noise canceler on. Negative edge (ICES0 cleared).
  95:../hw.h       **** #define TIMER0_INIT() {TCCR0A = _BV(TCW0)|_BV(ICEN0)|_BV(ICNC0); TCCR0B = _BV(CS00);}
  96:../hw.h       **** #define F_TIMER0 (F_CPU / 1)
  97:../hw.h       **** #define TIMER0_ENABLE_OVERFLOW_INTERRUPT() TIMSK |= _BV(TOIE0);
  98:../hw.h       **** #define TIMER0_DISABLE_OVERFLOW_INTERRUPT() TIMSK &= ~_BV(TOIE0);
  99:../hw.h       **** #define TIMER0_ENABLE_INPUTCAPT_INTERRUPT() TIMSK |= _BV(TICIE0);
 100:../hw.h       **** #define TIMER0_DISABLE_INPUTCAPT_INTERRUPT() TIMSK &= ~_BV(TICIE0);
 101:../hw.h       **** #define TIMER0_OVERFLOW_PERIOD_MS ((256L * 256L * 1000L) / F_CPU)
 102:../hw.h       **** #define TIMER0_OVERFLOW_PERIOD_MS_X256 ((256L * 256L *256L) / (F_CPU / 1000L))
 103:../hw.h       **** 
 104:../hw.h       **** 
 105:../hw.h       **** 
 106:../hw.h       **** //Normal mode. clk/128
 107:../hw.h       **** #define TIMER1_INIT() {TCCR1A = 0; TCCR1B = _BV(CS13); TCCR1C = 0; TCCR1D = 0; TCCR1E = 0; PLLCSR =
 108:../hw.h       **** #define F_TIMER1 (F_CPU/128)
 109:../hw.h       **** #define TIMER1_ENABLE_OVERFLOW_INTERRUPT() TIMSK |= _BV(TOIE1);
 110:../hw.h       **** #define TIMER1_DISABLE_OVERFLOW_INTERRUPT() TIMSK &= ~_BV(TOIE1);
 111:../hw.h       **** #define TIMER1_OVERFLOW_PERIOD_MS ((256L * 1000L) / F_TIMER1)
 112:../hw.h       **** #define TIMER1_OVERFLOW_PERIOD_MS_X256 ((256L *256L) / (F_TIMER1 / 1000L))
 113:../hw.h       **** 
 114:../hw.h       **** #define UARTSW_1_TX_ENABLE 1
 115:../hw.h       **** #define UARTSW_1_RX_ENABLE 0
 116:../hw.h       **** #define UARTSW_2_TX_ENABLE 0
 117:../hw.h       **** #define UARTSW_2_RX_ENABLE 1
 118:../hw.h       **** #define UARTSW_2_INVERT 1
 119:../hw.h       **** #define UARTSW_1_INVERT 1
 120:../hw.h       **** 
 121:../hw.h       **** #define UARTSW_1_BAUDRATE 9600
 122:../hw.h       **** #define UARTSW_2_BAUDRATE 9600
 123:../hw.h       **** #define UARTSW_1_RXD_PINNAME
 124:../hw.h       **** #define UARTSW_1_RXD_PINPORT
 125:../hw.h       **** #define UARTSW_1_TXD_PINNAME A
 126:../hw.h       **** #define UARTSW_1_TXD_PINPORT PA6
 127:../hw.h       **** #define UARTSW_2_RXD_PINNAME A
 128:../hw.h       **** #define UARTSW_2_RXD_PINPORT PA6
 129:../hw.h       **** #define UARTSW_2_TXD_PINNAME
 130:../hw.h       **** #define UARTSW_2_TXD_PINPORT
 131:../hw.h       **** 
 132:../hw.h       **** 
 133:../hw.h       **** #ifndef __ASSEMBLER__
 134:../hw.h       **** 
 135:../hw.h       **** static inline void hardwareInit(void) {
 136:../hw.h       **** 	BOOTLOADER_CONDITION_INIT();
 639               		.loc 3 136 0
 640 001e D398      		cbi 0x1a,3
 641 0020 DB9A      		sbi 0x1b,3
 137:../hw.h       **** 	LED_RED_INIT();
 642               		.loc 3 137 0
 643 0022 BB9A      		sbi 0x17,3
 644 0024 C398      		cbi 0x18,3
 645 0026 C398      		cbi 0x18,3
 138:../hw.h       **** 	LED_BUTTON_INIT();
 646               		.loc 3 138 0
 647 0028 B99A      		sbi 0x17,1
 648 002a C198      		cbi 0x18,1
 649 002c C198      		cbi 0x18,1
 139:../hw.h       **** 	TIMER0_INIT();
 650               		.loc 3 139 0
 651 002e 90EE      		ldi r25,lo8(-32)
 652 0030 95BB      		out 0x15,r25
 653 0032 91E0      		ldi r25,lo8(1)
 654 0034 93BF      		out 0x33,r25
 140:../hw.h       **** 	TIMER1_INIT();
 655               		.loc 3 140 0
 656 0036 10BE      		out 0x30,__zero_reg__
 657 0038 8FBD      		out 0x2f,r24
 658 003a 17BC      		out 0x27,__zero_reg__
 659 003c 16BC      		out 0x26,__zero_reg__
 660 003e 10B8      		out 0,__zero_reg__
 661 0040 19BC      		out 0x29,__zero_reg__
 141:../hw.h       **** 	BUTTON_INIT();
 662               		.loc 3 141 0
 663 0042 D498      		cbi 0x1a,4
 664 0044 DC9A      		sbi 0x1b,4
 142:../hw.h       **** 	POT_INIT();
 665               		.loc 3 142 0
 666 0046 D09A      		sbi 0x1a,0
 667 0048 D198      		cbi 0x1a,1
 668 004a D998      		cbi 0x1b,1
 669 004c D898      		cbi 0x1b,0
 143:../hw.h       **** 	STRIP_INIT();
 670               		.loc 3 143 0
 671 004e 8AB3      		in r24,0x1a
 672 0050 806C      		ori r24,lo8(-64)
 673 0052 8ABB      		out 0x1a,r24
 674 0054 88B3      		in r24,0x18
 675 0056 8F73      		andi r24,lo8(63)
 676 0058 88BB      		out 0x18,r24
 677               	.LBE33:
 678               	.LBE32:
 379:main.c        **** 	q7_8_t filtered_val = 0;
 380:main.c        **** 	uint8_t led_sensor_last_random = 0;
 381:main.c        **** 	static uint16_t led_sensor_delta_time = 0;
 382:main.c        **** 	uint16_t led_sensor_trig_time = 0;
 383:main.c        **** 	uint8_t led_sensor_prev_time=0;
 384:main.c        **** 	uint16_t led_sensor_values[5];
 385:main.c        **** 	uint8_t led_sensor_nvalues = 0;
 386:main.c        **** 	static uint8_t led_sensor_nsample = 5;
 387:main.c        **** 	static uint16_t led_sensor_weigthed_sum_data[20];
 388:main.c        **** 	uint16_t led_sensor_weigthed_sum = 0;
 389:main.c        **** 	uint8_t led_sensor_weigthed_sum_idx = 0;
 390:main.c        **** 
 391:main.c        **** 	hardwareInit();
 392:main.c        **** 	stdout = &usb_out_stream;
 679               		.loc 2 392 0
 680 005a 80E0      		ldi r24,lo8(usb_out_stream)
 681 005c 90E0      		ldi r25,hi8(usb_out_stream)
 682 005e 9093 0000 		sts __iob+2+1,r25
 683 0062 8093 0000 		sts __iob+2,r24
 393:main.c        **** 	stdin = &usb_in_stream;
 684               		.loc 2 393 0
 685 0066 80E0      		ldi r24,lo8(usb_in_stream)
 686 0068 90E0      		ldi r25,hi8(usb_in_stream)
 687 006a 9093 0000 		sts __iob+1,r25
 688 006e 8093 0000 		sts __iob,r24
 394:main.c        **** 	stdin_get_string_t stdin_get_string_buffer;
 395:main.c        **** 	stdin_get_string_buffer.bufLen = 0;
 396:main.c        **** 	//const char* stdin_str;
 397:main.c        **** 
 398:main.c        **** 	printf_P(PSTR("B!\n"));
 689               		.loc 2 398 0
 690 0072 80E0      		ldi r24,lo8(__c.2476)
 691 0074 90E0      		ldi r25,hi8(__c.2476)
 692 0076 9F93      		push r25
 693 0078 8F93      		push r24
 694 007a 00D0      		rcall printf_P
 695               	.LVL58:
 399:main.c        **** 	usbDeviceDisconnect();
 696               		.loc 2 399 0
 697 007c BC98      		cbi 0x17,4
 698 007e C498      		cbi 0x18,4
 699               	.LVL59:
 700               	.LBB34:
 701               	.LBB35:
 702               		.file 4 "/usr/lib/avr/include/avr/wdt.h"
   1:/usr/lib/avr/include/avr/wdt.h **** /* Copyright (c) 2002, 2004 Marek Michalkiewicz
   2:/usr/lib/avr/include/avr/wdt.h ****    Copyright (c) 2005, 2006, 2007 Eric B. Weddington
   3:/usr/lib/avr/include/avr/wdt.h ****    All rights reserved.
   4:/usr/lib/avr/include/avr/wdt.h **** 
   5:/usr/lib/avr/include/avr/wdt.h ****    Redistribution and use in source and binary forms, with or without
   6:/usr/lib/avr/include/avr/wdt.h ****    modification, are permitted provided that the following conditions are met:
   7:/usr/lib/avr/include/avr/wdt.h **** 
   8:/usr/lib/avr/include/avr/wdt.h ****    * Redistributions of source code must retain the above copyright
   9:/usr/lib/avr/include/avr/wdt.h ****      notice, this list of conditions and the following disclaimer.
  10:/usr/lib/avr/include/avr/wdt.h **** 
  11:/usr/lib/avr/include/avr/wdt.h ****    * Redistributions in binary form must reproduce the above copyright
  12:/usr/lib/avr/include/avr/wdt.h ****      notice, this list of conditions and the following disclaimer in
  13:/usr/lib/avr/include/avr/wdt.h ****      the documentation and/or other materials provided with the
  14:/usr/lib/avr/include/avr/wdt.h ****      distribution.
  15:/usr/lib/avr/include/avr/wdt.h **** 
  16:/usr/lib/avr/include/avr/wdt.h ****    * Neither the name of the copyright holders nor the names of
  17:/usr/lib/avr/include/avr/wdt.h ****      contributors may be used to endorse or promote products derived
  18:/usr/lib/avr/include/avr/wdt.h ****      from this software without specific prior written permission.
  19:/usr/lib/avr/include/avr/wdt.h **** 
  20:/usr/lib/avr/include/avr/wdt.h ****   THIS SOFTWARE IS PROVIDED BY THE COPYRIGHT HOLDERS AND CONTRIBUTORS "AS IS"
  21:/usr/lib/avr/include/avr/wdt.h ****   AND ANY EXPRESS OR IMPLIED WARRANTIES, INCLUDING, BUT NOT LIMITED TO, THE
  22:/usr/lib/avr/include/avr/wdt.h ****   IMPLIED WARRANTIES OF MERCHANTABILITY AND FITNESS FOR A PARTICULAR PURPOSE
  23:/usr/lib/avr/include/avr/wdt.h ****   ARE DISCLAIMED. IN NO EVENT SHALL THE COPYRIGHT OWNER OR CONTRIBUTORS BE
  24:/usr/lib/avr/include/avr/wdt.h ****   LIABLE FOR ANY DIRECT, INDIRECT, INCIDENTAL, SPECIAL, EXEMPLARY, OR
  25:/usr/lib/avr/include/avr/wdt.h ****   CONSEQUENTIAL DAMAGES (INCLUDING, BUT NOT LIMITED TO, PROCUREMENT OF
  26:/usr/lib/avr/include/avr/wdt.h ****   SUBSTITUTE GOODS OR SERVICES; LOSS OF USE, DATA, OR PROFITS; OR BUSINESS
  27:/usr/lib/avr/include/avr/wdt.h ****   INTERRUPTION) HOWEVER CAUSED AND ON ANY THEORY OF LIABILITY, WHETHER IN
  28:/usr/lib/avr/include/avr/wdt.h ****   CONTRACT, STRICT LIABILITY, OR TORT (INCLUDING NEGLIGENCE OR OTHERWISE)
  29:/usr/lib/avr/include/avr/wdt.h ****   ARISING IN ANY WAY OUT OF THE USE OF THIS SOFTWARE, EVEN IF ADVISED OF THE
  30:/usr/lib/avr/include/avr/wdt.h ****   POSSIBILITY OF SUCH DAMAGE. */
  31:/usr/lib/avr/include/avr/wdt.h **** 
  32:/usr/lib/avr/include/avr/wdt.h **** /* $Id$ */
  33:/usr/lib/avr/include/avr/wdt.h **** 
  34:/usr/lib/avr/include/avr/wdt.h **** /*
  35:/usr/lib/avr/include/avr/wdt.h ****    avr/wdt.h - macros for AVR watchdog timer
  36:/usr/lib/avr/include/avr/wdt.h ****  */
  37:/usr/lib/avr/include/avr/wdt.h **** 
  38:/usr/lib/avr/include/avr/wdt.h **** #ifndef _AVR_WDT_H_
  39:/usr/lib/avr/include/avr/wdt.h **** #define _AVR_WDT_H_
  40:/usr/lib/avr/include/avr/wdt.h **** 
  41:/usr/lib/avr/include/avr/wdt.h **** #include <avr/io.h>
  42:/usr/lib/avr/include/avr/wdt.h **** #include <stdint.h>
  43:/usr/lib/avr/include/avr/wdt.h **** 
  44:/usr/lib/avr/include/avr/wdt.h **** /** \file */
  45:/usr/lib/avr/include/avr/wdt.h **** /** \defgroup avr_watchdog <avr/wdt.h>: Watchdog timer handling
  46:/usr/lib/avr/include/avr/wdt.h ****     \code #include <avr/wdt.h> \endcode
  47:/usr/lib/avr/include/avr/wdt.h **** 
  48:/usr/lib/avr/include/avr/wdt.h ****     This header file declares the interface to some inline macros
  49:/usr/lib/avr/include/avr/wdt.h ****     handling the watchdog timer present in many AVR devices.  In order
  50:/usr/lib/avr/include/avr/wdt.h ****     to prevent the watchdog timer configuration from being
  51:/usr/lib/avr/include/avr/wdt.h ****     accidentally altered by a crashing application, a special timed
  52:/usr/lib/avr/include/avr/wdt.h ****     sequence is required in order to change it.  The macros within
  53:/usr/lib/avr/include/avr/wdt.h ****     this header file handle the required sequence automatically
  54:/usr/lib/avr/include/avr/wdt.h ****     before changing any value.  Interrupts will be disabled during
  55:/usr/lib/avr/include/avr/wdt.h ****     the manipulation.
  56:/usr/lib/avr/include/avr/wdt.h **** 
  57:/usr/lib/avr/include/avr/wdt.h ****     \note Depending on the fuse configuration of the particular
  58:/usr/lib/avr/include/avr/wdt.h ****     device, further restrictions might apply, in particular it might
  59:/usr/lib/avr/include/avr/wdt.h ****     be disallowed to turn off the watchdog timer.
  60:/usr/lib/avr/include/avr/wdt.h **** 
  61:/usr/lib/avr/include/avr/wdt.h ****     Note that for newer devices (ATmega88 and newer, effectively any
  62:/usr/lib/avr/include/avr/wdt.h ****     AVR that has the option to also generate interrupts), the watchdog
  63:/usr/lib/avr/include/avr/wdt.h ****     timer remains active even after a system reset (except a power-on
  64:/usr/lib/avr/include/avr/wdt.h ****     condition), using the fastest prescaler value (approximately 15
  65:/usr/lib/avr/include/avr/wdt.h ****     ms).  It is therefore required to turn off the watchdog early
  66:/usr/lib/avr/include/avr/wdt.h ****     during program startup, the datasheet recommends a sequence like
  67:/usr/lib/avr/include/avr/wdt.h ****     the following:
  68:/usr/lib/avr/include/avr/wdt.h **** 
  69:/usr/lib/avr/include/avr/wdt.h ****     \code
  70:/usr/lib/avr/include/avr/wdt.h ****     #include <stdint.h>
  71:/usr/lib/avr/include/avr/wdt.h ****     #include <avr/wdt.h>
  72:/usr/lib/avr/include/avr/wdt.h **** 
  73:/usr/lib/avr/include/avr/wdt.h ****     uint8_t mcusr_mirror __attribute__ ((section (".noinit")));
  74:/usr/lib/avr/include/avr/wdt.h **** 
  75:/usr/lib/avr/include/avr/wdt.h ****     void get_mcusr(void) \
  76:/usr/lib/avr/include/avr/wdt.h ****       __attribute__((naked)) \
  77:/usr/lib/avr/include/avr/wdt.h ****       __attribute__((section(".init3")));
  78:/usr/lib/avr/include/avr/wdt.h ****     void get_mcusr(void)
  79:/usr/lib/avr/include/avr/wdt.h ****     {
  80:/usr/lib/avr/include/avr/wdt.h ****       mcusr_mirror = MCUSR;
  81:/usr/lib/avr/include/avr/wdt.h ****       MCUSR = 0;
  82:/usr/lib/avr/include/avr/wdt.h ****       wdt_disable();
  83:/usr/lib/avr/include/avr/wdt.h ****     }
  84:/usr/lib/avr/include/avr/wdt.h ****     \endcode
  85:/usr/lib/avr/include/avr/wdt.h **** 
  86:/usr/lib/avr/include/avr/wdt.h ****     Saving the value of MCUSR in \c mcusr_mirror is only needed if the
  87:/usr/lib/avr/include/avr/wdt.h ****     application later wants to examine the reset source, but in particular, 
  88:/usr/lib/avr/include/avr/wdt.h ****     clearing the watchdog reset flag before disabling the
  89:/usr/lib/avr/include/avr/wdt.h ****     watchdog is required, according to the datasheet.
  90:/usr/lib/avr/include/avr/wdt.h **** */
  91:/usr/lib/avr/include/avr/wdt.h **** 
  92:/usr/lib/avr/include/avr/wdt.h **** /**
  93:/usr/lib/avr/include/avr/wdt.h ****    \ingroup avr_watchdog
  94:/usr/lib/avr/include/avr/wdt.h ****    Reset the watchdog timer.  When the watchdog timer is enabled,
  95:/usr/lib/avr/include/avr/wdt.h ****    a call to this instruction is required before the timer expires,
  96:/usr/lib/avr/include/avr/wdt.h ****    otherwise a watchdog-initiated device reset will occur. 
  97:/usr/lib/avr/include/avr/wdt.h **** */
  98:/usr/lib/avr/include/avr/wdt.h **** 
  99:/usr/lib/avr/include/avr/wdt.h **** #define wdt_reset() __asm__ __volatile__ ("wdr")
 100:/usr/lib/avr/include/avr/wdt.h **** 
 101:/usr/lib/avr/include/avr/wdt.h **** #ifndef __DOXYGEN__
 102:/usr/lib/avr/include/avr/wdt.h **** 
 103:/usr/lib/avr/include/avr/wdt.h **** #if defined(WDP3)
 104:/usr/lib/avr/include/avr/wdt.h **** # define _WD_PS3_MASK       _BV(WDP3)
 105:/usr/lib/avr/include/avr/wdt.h **** #else
 106:/usr/lib/avr/include/avr/wdt.h **** # define _WD_PS3_MASK       0x00
 107:/usr/lib/avr/include/avr/wdt.h **** #endif
 108:/usr/lib/avr/include/avr/wdt.h **** 
 109:/usr/lib/avr/include/avr/wdt.h **** #if defined(WDTCSR)
 110:/usr/lib/avr/include/avr/wdt.h **** #  define _WD_CONTROL_REG     WDTCSR
 111:/usr/lib/avr/include/avr/wdt.h **** #elif defined(WDTCR)
 112:/usr/lib/avr/include/avr/wdt.h **** #  define _WD_CONTROL_REG     WDTCR
 113:/usr/lib/avr/include/avr/wdt.h **** #else
 114:/usr/lib/avr/include/avr/wdt.h **** #  define _WD_CONTROL_REG     WDT
 115:/usr/lib/avr/include/avr/wdt.h **** #endif
 116:/usr/lib/avr/include/avr/wdt.h **** 
 117:/usr/lib/avr/include/avr/wdt.h **** #if defined(WDTOE)
 118:/usr/lib/avr/include/avr/wdt.h **** #define _WD_CHANGE_BIT      WDTOE
 119:/usr/lib/avr/include/avr/wdt.h **** #else
 120:/usr/lib/avr/include/avr/wdt.h **** #define _WD_CHANGE_BIT      WDCE
 121:/usr/lib/avr/include/avr/wdt.h **** #endif
 122:/usr/lib/avr/include/avr/wdt.h **** 
 123:/usr/lib/avr/include/avr/wdt.h **** #endif	/* !__DOXYGEN__ */
 124:/usr/lib/avr/include/avr/wdt.h **** 
 125:/usr/lib/avr/include/avr/wdt.h **** 
 126:/usr/lib/avr/include/avr/wdt.h **** /**
 127:/usr/lib/avr/include/avr/wdt.h ****    \ingroup avr_watchdog
 128:/usr/lib/avr/include/avr/wdt.h ****    Enable the watchdog timer, configuring it for expiry after
 129:/usr/lib/avr/include/avr/wdt.h ****    \c timeout (which is a combination of the \c WDP0 through
 130:/usr/lib/avr/include/avr/wdt.h ****    \c WDP2 bits to write into the \c WDTCR register; For those devices 
 131:/usr/lib/avr/include/avr/wdt.h ****    that have a \c WDTCSR register, it uses the combination of the \c WDP0 
 132:/usr/lib/avr/include/avr/wdt.h ****    through \c WDP3 bits).
 133:/usr/lib/avr/include/avr/wdt.h **** 
 134:/usr/lib/avr/include/avr/wdt.h ****    See also the symbolic constants \c WDTO_15MS et al.
 135:/usr/lib/avr/include/avr/wdt.h **** */
 136:/usr/lib/avr/include/avr/wdt.h **** 
 137:/usr/lib/avr/include/avr/wdt.h **** 
 138:/usr/lib/avr/include/avr/wdt.h **** #if defined(__AVR_XMEGA__)
 139:/usr/lib/avr/include/avr/wdt.h **** 
 140:/usr/lib/avr/include/avr/wdt.h **** #if defined (WDT_CTRLA) && !defined(RAMPD)
 141:/usr/lib/avr/include/avr/wdt.h **** 
 142:/usr/lib/avr/include/avr/wdt.h **** #define wdt_enable(timeout) \
 143:/usr/lib/avr/include/avr/wdt.h **** do { \
 144:/usr/lib/avr/include/avr/wdt.h **** uint8_t temp; \
 145:/usr/lib/avr/include/avr/wdt.h **** __asm__ __volatile__ ( \
 146:/usr/lib/avr/include/avr/wdt.h **** 	"wdr"									"\n\t" \
 147:/usr/lib/avr/include/avr/wdt.h **** 	"out %[ccp_reg], %[ioreg_cen_mask]"		"\n\t" \
 148:/usr/lib/avr/include/avr/wdt.h **** 	"lds %[tmp], %[wdt_reg]"				"\n\t" \
 149:/usr/lib/avr/include/avr/wdt.h **** 	"sbr %[tmp], %[wdt_enable_timeout]"		"\n\t" \
 150:/usr/lib/avr/include/avr/wdt.h **** 	"sts %[wdt_reg], %[tmp]"				"\n\t" \
 151:/usr/lib/avr/include/avr/wdt.h **** 	"1:lds %[tmp], %[wdt_status_reg]"		"\n\t" \
 152:/usr/lib/avr/include/avr/wdt.h **** 	"sbrc %[tmp], %[wdt_syncbusy_bit]"		"\n\t" \
 153:/usr/lib/avr/include/avr/wdt.h **** 	"rjmp 1b"								"\n\t" \
 154:/usr/lib/avr/include/avr/wdt.h **** 	: [tmp]					"=r" (temp) \
 155:/usr/lib/avr/include/avr/wdt.h **** 	: [ccp_reg]				"I"  (_SFR_IO_ADDR(CCP)), \
 156:/usr/lib/avr/include/avr/wdt.h **** 	  [ioreg_cen_mask]		"r"  ((uint8_t)CCP_IOREG_gc), \
 157:/usr/lib/avr/include/avr/wdt.h **** 	  [wdt_reg]				"n"  (_SFR_MEM_ADDR(WDT_CTRLA)), \
 158:/usr/lib/avr/include/avr/wdt.h **** 	  [wdt_enable_timeout]	"M"  (timeout), \
 159:/usr/lib/avr/include/avr/wdt.h **** 	  [wdt_status_reg]		"n"  (_SFR_MEM_ADDR(WDT_STATUS)), \
 160:/usr/lib/avr/include/avr/wdt.h **** 	  [wdt_syncbusy_bit]	"I"  (WDT_SYNCBUSY_bm) \
 161:/usr/lib/avr/include/avr/wdt.h **** ); \
 162:/usr/lib/avr/include/avr/wdt.h **** } while(0)
 163:/usr/lib/avr/include/avr/wdt.h **** 
 164:/usr/lib/avr/include/avr/wdt.h **** #define wdt_disable() \
 165:/usr/lib/avr/include/avr/wdt.h **** do { \
 166:/usr/lib/avr/include/avr/wdt.h **** uint8_t temp; \
 167:/usr/lib/avr/include/avr/wdt.h **** __asm__ __volatile__ (  \
 168:/usr/lib/avr/include/avr/wdt.h **** 	"wdr"								"\n\t" \
 169:/usr/lib/avr/include/avr/wdt.h **** 	"out %[ccp_reg], %[ioreg_cen_mask]" "\n\t" \
 170:/usr/lib/avr/include/avr/wdt.h **** 	"lds %[tmp], %[wdt_reg]"			"\n\t" \
 171:/usr/lib/avr/include/avr/wdt.h **** 	"cbr %[tmp], %[timeout_mask]"       "\n\t" \
 172:/usr/lib/avr/include/avr/wdt.h **** 	"sts %[wdt_reg], %[tmp]"			"\n\t" \
 173:/usr/lib/avr/include/avr/wdt.h ****     : [tmp]            "=r" (temp) \
 174:/usr/lib/avr/include/avr/wdt.h ****     : [ccp_reg]        "I" (_SFR_IO_ADDR(CCP)),       \
 175:/usr/lib/avr/include/avr/wdt.h ****       [ioreg_cen_mask] "r" ((uint8_t)CCP_IOREG_gc),   \
 176:/usr/lib/avr/include/avr/wdt.h ****       [wdt_reg]        "n" (_SFR_MEM_ADDR(WDT_CTRLA)),\
 177:/usr/lib/avr/include/avr/wdt.h ****       [timeout_mask]   "I" (WDT_PERIOD_gm) \
 178:/usr/lib/avr/include/avr/wdt.h **** ); \
 179:/usr/lib/avr/include/avr/wdt.h **** } while(0)
 180:/usr/lib/avr/include/avr/wdt.h **** 
 181:/usr/lib/avr/include/avr/wdt.h **** #else // defined (WDT_CTRLA) && !defined(RAMPD)
 182:/usr/lib/avr/include/avr/wdt.h **** 
 183:/usr/lib/avr/include/avr/wdt.h **** /*
 184:/usr/lib/avr/include/avr/wdt.h ****    wdt_enable(timeout) for xmega devices
 185:/usr/lib/avr/include/avr/wdt.h **** ** write signature (CCP_IOREG_gc) that enables change of protected I/O
 186:/usr/lib/avr/include/avr/wdt.h ****    registers to the CCP register
 187:/usr/lib/avr/include/avr/wdt.h **** ** At the same time,
 188:/usr/lib/avr/include/avr/wdt.h ****    1) set WDT change enable (WDT_CEN_bm)
 189:/usr/lib/avr/include/avr/wdt.h ****    2) enable WDT (WDT_ENABLE_bm)
 190:/usr/lib/avr/include/avr/wdt.h ****    3) set timeout (timeout)
 191:/usr/lib/avr/include/avr/wdt.h **** ** Synchronization starts when ENABLE bit of WDT is set. So, wait till it
 192:/usr/lib/avr/include/avr/wdt.h ****    finishes (SYNCBUSY of STATUS register is automatically cleared after the
 193:/usr/lib/avr/include/avr/wdt.h ****    sync is finished).
 194:/usr/lib/avr/include/avr/wdt.h **** */
 195:/usr/lib/avr/include/avr/wdt.h **** #define wdt_enable(timeout) \
 196:/usr/lib/avr/include/avr/wdt.h **** do { \
 197:/usr/lib/avr/include/avr/wdt.h **** uint8_t temp; \
 198:/usr/lib/avr/include/avr/wdt.h **** __asm__ __volatile__ (         \
 199:/usr/lib/avr/include/avr/wdt.h ****     "in __tmp_reg__, %[rampd]"              "\n\t" \
 200:/usr/lib/avr/include/avr/wdt.h ****     "out %[rampd], __zero_reg__"            "\n\t" \
 201:/usr/lib/avr/include/avr/wdt.h ****     "out %[ccp_reg], %[ioreg_cen_mask]"     "\n\t" \
 202:/usr/lib/avr/include/avr/wdt.h ****     "sts %[wdt_reg], %[wdt_enable_timeout]" "\n\t" \
 203:/usr/lib/avr/include/avr/wdt.h ****     "1:lds %[tmp], %[wdt_status_reg]"       "\n\t" \
 204:/usr/lib/avr/include/avr/wdt.h ****     "sbrc %[tmp], %[wdt_syncbusy_bit]"      "\n\t" \
 205:/usr/lib/avr/include/avr/wdt.h ****     "rjmp 1b"                               "\n\t" \
 206:/usr/lib/avr/include/avr/wdt.h ****     "out %[rampd], __tmp_reg__"             "\n\t" \
 207:/usr/lib/avr/include/avr/wdt.h ****     : [tmp]                "=r" (temp) \
 208:/usr/lib/avr/include/avr/wdt.h ****     : [rampd]              "I" (_SFR_IO_ADDR(RAMPD)),      \
 209:/usr/lib/avr/include/avr/wdt.h ****       [ccp_reg]            "I" (_SFR_IO_ADDR(CCP)),        \
 210:/usr/lib/avr/include/avr/wdt.h ****       [ioreg_cen_mask]     "r" ((uint8_t)CCP_IOREG_gc),     \
 211:/usr/lib/avr/include/avr/wdt.h ****       [wdt_reg]            "n" (_SFR_MEM_ADDR(WDT_CTRL)),   \
 212:/usr/lib/avr/include/avr/wdt.h ****       [wdt_enable_timeout] "r" ((uint8_t)(WDT_CEN_bm | WDT_ENABLE_bm | timeout)), \
 213:/usr/lib/avr/include/avr/wdt.h ****       [wdt_status_reg]     "n" (_SFR_MEM_ADDR(WDT_STATUS)), \
 214:/usr/lib/avr/include/avr/wdt.h ****       [wdt_syncbusy_bit]   "I" (WDT_SYNCBUSY_bm)            \
 215:/usr/lib/avr/include/avr/wdt.h ****     : "r0" \
 216:/usr/lib/avr/include/avr/wdt.h **** ); \
 217:/usr/lib/avr/include/avr/wdt.h **** } while(0)
 218:/usr/lib/avr/include/avr/wdt.h **** 
 219:/usr/lib/avr/include/avr/wdt.h **** #define wdt_disable() \
 220:/usr/lib/avr/include/avr/wdt.h **** __asm__ __volatile__ (  \
 221:/usr/lib/avr/include/avr/wdt.h ****     "in __tmp_reg__, %[rampd]"          "\n\t" \
 222:/usr/lib/avr/include/avr/wdt.h ****     "out %[rampd], __zero_reg__"        "\n\t" \
 223:/usr/lib/avr/include/avr/wdt.h ****     "out %[ccp_reg], %[ioreg_cen_mask]" "\n\t" \
 224:/usr/lib/avr/include/avr/wdt.h ****     "sts %[wdt_reg], %[disable_mask]"   "\n\t" \
 225:/usr/lib/avr/include/avr/wdt.h ****     "out %[rampd], __tmp_reg__"         "\n\t" \
 226:/usr/lib/avr/include/avr/wdt.h ****     : \
 227:/usr/lib/avr/include/avr/wdt.h ****     : [rampd]             "I" (_SFR_IO_ADDR(RAMPD)),    \
 228:/usr/lib/avr/include/avr/wdt.h ****       [ccp_reg]           "I" (_SFR_IO_ADDR(CCP)),      \
 229:/usr/lib/avr/include/avr/wdt.h ****       [ioreg_cen_mask]    "r" ((uint8_t)CCP_IOREG_gc),   \
 230:/usr/lib/avr/include/avr/wdt.h ****       [wdt_reg]           "n" (_SFR_MEM_ADDR(WDT_CTRL)), \
 231:/usr/lib/avr/include/avr/wdt.h ****       [disable_mask]      "r" ((uint8_t)((~WDT_ENABLE_bm) | WDT_CEN_bm)) \
 232:/usr/lib/avr/include/avr/wdt.h ****     : "r0" \
 233:/usr/lib/avr/include/avr/wdt.h **** );
 234:/usr/lib/avr/include/avr/wdt.h **** 
 235:/usr/lib/avr/include/avr/wdt.h **** #endif // defined (WDT_CTRLA) && !defined(RAMPD)
 236:/usr/lib/avr/include/avr/wdt.h **** 
 237:/usr/lib/avr/include/avr/wdt.h **** #elif defined(__AVR_TINY__)
 238:/usr/lib/avr/include/avr/wdt.h **** 
 239:/usr/lib/avr/include/avr/wdt.h **** #define wdt_enable(value) \
 240:/usr/lib/avr/include/avr/wdt.h **** __asm__ __volatile__ ( \
 241:/usr/lib/avr/include/avr/wdt.h ****     "in __tmp_reg__,__SREG__" "\n\t"  \
 242:/usr/lib/avr/include/avr/wdt.h ****     "cli" "\n\t"  \
 243:/usr/lib/avr/include/avr/wdt.h ****     "wdr" "\n\t"  \
 244:/usr/lib/avr/include/avr/wdt.h ****     "out %[CCPADDRESS],%[SIGNATURE]" "\n\t"  \
 245:/usr/lib/avr/include/avr/wdt.h ****     "out %[WDTREG],%[WDVALUE]" "\n\t"  \
 246:/usr/lib/avr/include/avr/wdt.h ****     "out __SREG__,__tmp_reg__" "\n\t"  \
 247:/usr/lib/avr/include/avr/wdt.h ****     : /* no outputs */  \
 248:/usr/lib/avr/include/avr/wdt.h ****     : [CCPADDRESS] "I" (_SFR_IO_ADDR(CCP)),  \
 249:/usr/lib/avr/include/avr/wdt.h ****       [SIGNATURE] "r" ((uint8_t)0xD8), \
 250:/usr/lib/avr/include/avr/wdt.h ****       [WDTREG] "I" (_SFR_IO_ADDR(_WD_CONTROL_REG)), \
 251:/usr/lib/avr/include/avr/wdt.h ****       [WDVALUE] "r" ((uint8_t)((value & 0x08 ? _WD_PS3_MASK : 0x00) \
 252:/usr/lib/avr/include/avr/wdt.h ****       | _BV(WDE) | (value & 0x07) )) \
 253:/usr/lib/avr/include/avr/wdt.h ****     : "r16" \
 254:/usr/lib/avr/include/avr/wdt.h **** )
 255:/usr/lib/avr/include/avr/wdt.h **** 
 256:/usr/lib/avr/include/avr/wdt.h **** #define wdt_disable() \
 257:/usr/lib/avr/include/avr/wdt.h **** do { \
 258:/usr/lib/avr/include/avr/wdt.h **** uint8_t temp_wd; \
 259:/usr/lib/avr/include/avr/wdt.h **** __asm__ __volatile__ ( \
 260:/usr/lib/avr/include/avr/wdt.h ****     "in __tmp_reg__,__SREG__" "\n\t"  \
 261:/usr/lib/avr/include/avr/wdt.h ****     "cli" "\n\t"  \
 262:/usr/lib/avr/include/avr/wdt.h ****     "wdr" "\n\t"  \
 263:/usr/lib/avr/include/avr/wdt.h ****     "out %[CCPADDRESS],%[SIGNATURE]" "\n\t"  \
 264:/usr/lib/avr/include/avr/wdt.h ****     "in  %[TEMP_WD],%[WDTREG]" "\n\t" \
 265:/usr/lib/avr/include/avr/wdt.h ****     "cbr %[TEMP_WD],%[WDVALUE]" "\n\t" \
 266:/usr/lib/avr/include/avr/wdt.h ****     "out %[WDTREG],%[TEMP_WD]" "\n\t" \
 267:/usr/lib/avr/include/avr/wdt.h ****     "out __SREG__,__tmp_reg__" "\n\t" \
 268:/usr/lib/avr/include/avr/wdt.h ****     : /*no output */ \
 269:/usr/lib/avr/include/avr/wdt.h ****     : [CCPADDRESS] "I" (_SFR_IO_ADDR(CCP)), \
 270:/usr/lib/avr/include/avr/wdt.h ****       [SIGNATURE] "r" ((uint8_t)0xD8), \
 271:/usr/lib/avr/include/avr/wdt.h ****       [WDTREG] "I" (_SFR_IO_ADDR(_WD_CONTROL_REG)), \
 272:/usr/lib/avr/include/avr/wdt.h ****       [TEMP_WD] "d" (temp_wd), \
 273:/usr/lib/avr/include/avr/wdt.h ****       [WDVALUE] "n" (1 << WDE) \
 274:/usr/lib/avr/include/avr/wdt.h ****     : "r16" \
 275:/usr/lib/avr/include/avr/wdt.h **** ); \
 276:/usr/lib/avr/include/avr/wdt.h **** }while(0)
 277:/usr/lib/avr/include/avr/wdt.h **** 
 278:/usr/lib/avr/include/avr/wdt.h **** #elif defined(CCP)
 279:/usr/lib/avr/include/avr/wdt.h **** 
 280:/usr/lib/avr/include/avr/wdt.h **** static __inline__
 281:/usr/lib/avr/include/avr/wdt.h **** __attribute__ ((__always_inline__))
 282:/usr/lib/avr/include/avr/wdt.h **** void wdt_enable (const uint8_t value)
 283:/usr/lib/avr/include/avr/wdt.h **** {
 284:/usr/lib/avr/include/avr/wdt.h **** 	if (!_SFR_IO_REG_P (CCP) && !_SFR_IO_REG_P (_WD_CONTROL_REG))
 285:/usr/lib/avr/include/avr/wdt.h **** 	{
 286:/usr/lib/avr/include/avr/wdt.h **** 		__asm__ __volatile__ (
 287:/usr/lib/avr/include/avr/wdt.h **** 			"in __tmp_reg__,__SREG__" "\n\t"
 288:/usr/lib/avr/include/avr/wdt.h **** 			"cli" "\n\t"
 289:/usr/lib/avr/include/avr/wdt.h **** 			"wdr" "\n\t"
 290:/usr/lib/avr/include/avr/wdt.h **** 			"sts %[CCPADDRESS],%[SIGNATURE]" "\n\t"
 291:/usr/lib/avr/include/avr/wdt.h **** 			"sts %[WDTREG],%[WDVALUE]" "\n\t"
 292:/usr/lib/avr/include/avr/wdt.h **** 			"out __SREG__,__tmp_reg__" "\n\t"
 293:/usr/lib/avr/include/avr/wdt.h **** 			: /* no outputs */
 294:/usr/lib/avr/include/avr/wdt.h **** 			: [CCPADDRESS] "n" (_SFR_MEM_ADDR(CCP)),
 295:/usr/lib/avr/include/avr/wdt.h **** 			[SIGNATURE] "r" ((uint8_t)0xD8),
 296:/usr/lib/avr/include/avr/wdt.h **** 			[WDTREG] "n" (_SFR_MEM_ADDR(_WD_CONTROL_REG)),
 297:/usr/lib/avr/include/avr/wdt.h **** 			[WDVALUE] "r" ((uint8_t)((value & 0x08 ? _WD_PS3_MASK : 0x00)
 298:/usr/lib/avr/include/avr/wdt.h **** 				| _BV(WDE) | (value & 0x07) ))
 299:/usr/lib/avr/include/avr/wdt.h **** 			: "r0"
 300:/usr/lib/avr/include/avr/wdt.h **** 			);
 301:/usr/lib/avr/include/avr/wdt.h **** 	}
 302:/usr/lib/avr/include/avr/wdt.h **** 	else if (!_SFR_IO_REG_P (CCP) && _SFR_IO_REG_P (_WD_CONTROL_REG))
 303:/usr/lib/avr/include/avr/wdt.h **** 	{
 304:/usr/lib/avr/include/avr/wdt.h **** 		__asm__ __volatile__ (
 305:/usr/lib/avr/include/avr/wdt.h **** 			"in __tmp_reg__,__SREG__" "\n\t"
 306:/usr/lib/avr/include/avr/wdt.h **** 			"cli" "\n\t"
 307:/usr/lib/avr/include/avr/wdt.h **** 			"wdr" "\n\t"
 308:/usr/lib/avr/include/avr/wdt.h **** 			"sts %[CCPADDRESS],%[SIGNATURE]" "\n\t"
 309:/usr/lib/avr/include/avr/wdt.h **** 			"out %[WDTREG],%[WDVALUE]" "\n\t"
 310:/usr/lib/avr/include/avr/wdt.h **** 			"out __SREG__,__tmp_reg__" "\n\t"
 311:/usr/lib/avr/include/avr/wdt.h **** 			: /* no outputs */
 312:/usr/lib/avr/include/avr/wdt.h **** 			: [CCPADDRESS] "n" (_SFR_MEM_ADDR(CCP)),
 313:/usr/lib/avr/include/avr/wdt.h **** 			[SIGNATURE] "r" ((uint8_t)0xD8),
 314:/usr/lib/avr/include/avr/wdt.h **** 			[WDTREG] "I" (_SFR_IO_ADDR(_WD_CONTROL_REG)),
 315:/usr/lib/avr/include/avr/wdt.h **** 			[WDVALUE] "r" ((uint8_t)((value & 0x08 ? _WD_PS3_MASK : 0x00)
 316:/usr/lib/avr/include/avr/wdt.h **** 				| _BV(WDE) | (value & 0x07) ))
 317:/usr/lib/avr/include/avr/wdt.h **** 			: "r0"
 318:/usr/lib/avr/include/avr/wdt.h **** 			);
 319:/usr/lib/avr/include/avr/wdt.h **** 	}
 320:/usr/lib/avr/include/avr/wdt.h **** 	else if (_SFR_IO_REG_P (CCP) && !_SFR_IO_REG_P (_WD_CONTROL_REG))
 321:/usr/lib/avr/include/avr/wdt.h **** 	{
 322:/usr/lib/avr/include/avr/wdt.h **** 		__asm__ __volatile__ (
 323:/usr/lib/avr/include/avr/wdt.h **** 			"in __tmp_reg__,__SREG__" "\n\t"
 324:/usr/lib/avr/include/avr/wdt.h **** 			"cli" "\n\t"
 325:/usr/lib/avr/include/avr/wdt.h **** 			"wdr" "\n\t"
 326:/usr/lib/avr/include/avr/wdt.h **** 			"out %[CCPADDRESS],%[SIGNATURE]" "\n\t"
 327:/usr/lib/avr/include/avr/wdt.h **** 			"sts %[WDTREG],%[WDVALUE]" "\n\t"
 328:/usr/lib/avr/include/avr/wdt.h **** 			"out __SREG__,__tmp_reg__" "\n\t"
 329:/usr/lib/avr/include/avr/wdt.h **** 			: /* no outputs */
 330:/usr/lib/avr/include/avr/wdt.h **** 			: [CCPADDRESS] "I" (_SFR_IO_ADDR(CCP)),
 331:/usr/lib/avr/include/avr/wdt.h **** 			[SIGNATURE] "r" ((uint8_t)0xD8),
 332:/usr/lib/avr/include/avr/wdt.h **** 			[WDTREG] "n" (_SFR_MEM_ADDR(_WD_CONTROL_REG)),
 333:/usr/lib/avr/include/avr/wdt.h **** 			[WDVALUE] "r" ((uint8_t)((value & 0x08 ? _WD_PS3_MASK : 0x00)
 334:/usr/lib/avr/include/avr/wdt.h **** 				| _BV(WDE) | (value & 0x07) ))
 335:/usr/lib/avr/include/avr/wdt.h **** 			: "r0"
 336:/usr/lib/avr/include/avr/wdt.h **** 			);
 337:/usr/lib/avr/include/avr/wdt.h **** 	}
 338:/usr/lib/avr/include/avr/wdt.h **** 	else
 339:/usr/lib/avr/include/avr/wdt.h ****  	{
 340:/usr/lib/avr/include/avr/wdt.h **** 		__asm__ __volatile__ (
 341:/usr/lib/avr/include/avr/wdt.h **** 			"in __tmp_reg__,__SREG__" "\n\t"
 342:/usr/lib/avr/include/avr/wdt.h **** 			"cli" "\n\t"
 343:/usr/lib/avr/include/avr/wdt.h **** 			"wdr" "\n\t"
 344:/usr/lib/avr/include/avr/wdt.h **** 			"out %[CCPADDRESS],%[SIGNATURE]" "\n\t"
 345:/usr/lib/avr/include/avr/wdt.h **** 			"out %[WDTREG],%[WDVALUE]" "\n\t"
 346:/usr/lib/avr/include/avr/wdt.h **** 			"out __SREG__,__tmp_reg__" "\n\t"
 347:/usr/lib/avr/include/avr/wdt.h **** 			: /* no outputs */
 348:/usr/lib/avr/include/avr/wdt.h **** 			: [CCPADDRESS] "I" (_SFR_IO_ADDR(CCP)),
 349:/usr/lib/avr/include/avr/wdt.h **** 			[SIGNATURE] "r" ((uint8_t)0xD8),
 350:/usr/lib/avr/include/avr/wdt.h **** 			[WDTREG] "I" (_SFR_IO_ADDR(_WD_CONTROL_REG)),
 351:/usr/lib/avr/include/avr/wdt.h **** 			[WDVALUE] "r" ((uint8_t)((value & 0x08 ? _WD_PS3_MASK : 0x00)
 352:/usr/lib/avr/include/avr/wdt.h **** 				| _BV(WDE) | (value & 0x07) ))
 353:/usr/lib/avr/include/avr/wdt.h **** 			: "r0"
 354:/usr/lib/avr/include/avr/wdt.h **** 			);
 355:/usr/lib/avr/include/avr/wdt.h **** 	}
 356:/usr/lib/avr/include/avr/wdt.h **** }
 357:/usr/lib/avr/include/avr/wdt.h **** 
 358:/usr/lib/avr/include/avr/wdt.h **** static __inline__
 359:/usr/lib/avr/include/avr/wdt.h **** __attribute__ ((__always_inline__))
 360:/usr/lib/avr/include/avr/wdt.h **** void wdt_disable (void)
 361:/usr/lib/avr/include/avr/wdt.h **** {
 362:/usr/lib/avr/include/avr/wdt.h **** 	if (!_SFR_IO_REG_P (CCP) && !_SFR_IO_REG_P(_WD_CONTROL_REG))
 363:/usr/lib/avr/include/avr/wdt.h **** 	{
 364:/usr/lib/avr/include/avr/wdt.h ****         uint8_t temp_wd;
 365:/usr/lib/avr/include/avr/wdt.h ****         __asm__ __volatile__ (
 366:/usr/lib/avr/include/avr/wdt.h **** 				"in __tmp_reg__,__SREG__" "\n\t"
 367:/usr/lib/avr/include/avr/wdt.h **** 				"cli" "\n\t"
 368:/usr/lib/avr/include/avr/wdt.h **** 				"wdr" "\n\t"
 369:/usr/lib/avr/include/avr/wdt.h **** 				"sts %[CCPADDRESS],%[SIGNATURE]" "\n\t"
 370:/usr/lib/avr/include/avr/wdt.h **** 				"lds %[TEMP_WD],%[WDTREG]" "\n\t"
 371:/usr/lib/avr/include/avr/wdt.h **** 				"cbr %[TEMP_WD],%[WDVALUE]" "\n\t"
 372:/usr/lib/avr/include/avr/wdt.h **** 				"sts %[WDTREG],%[TEMP_WD]" "\n\t"
 373:/usr/lib/avr/include/avr/wdt.h **** 				"out __SREG__,__tmp_reg__" "\n\t"
 374:/usr/lib/avr/include/avr/wdt.h **** 				: /*no output */
 375:/usr/lib/avr/include/avr/wdt.h **** 				: [CCPADDRESS] "n" (_SFR_MEM_ADDR(CCP)),
 376:/usr/lib/avr/include/avr/wdt.h **** 				[SIGNATURE] "r" ((uint8_t)0xD8),
 377:/usr/lib/avr/include/avr/wdt.h **** 				[WDTREG] "n" (_SFR_MEM_ADDR(_WD_CONTROL_REG)),
 378:/usr/lib/avr/include/avr/wdt.h **** 				[TEMP_WD] "d" (temp_wd),
 379:/usr/lib/avr/include/avr/wdt.h **** 				[WDVALUE] "n" (1 << WDE)
 380:/usr/lib/avr/include/avr/wdt.h **** 				: "r0"
 381:/usr/lib/avr/include/avr/wdt.h **** 				);
 382:/usr/lib/avr/include/avr/wdt.h **** 	}
 383:/usr/lib/avr/include/avr/wdt.h **** 	else if (!_SFR_IO_REG_P (CCP) && _SFR_IO_REG_P(_WD_CONTROL_REG))
 384:/usr/lib/avr/include/avr/wdt.h **** 	{
 385:/usr/lib/avr/include/avr/wdt.h ****         uint8_t temp_wd;
 386:/usr/lib/avr/include/avr/wdt.h ****         __asm__ __volatile__ (
 387:/usr/lib/avr/include/avr/wdt.h **** 				"in __tmp_reg__,__SREG__" "\n\t"
 388:/usr/lib/avr/include/avr/wdt.h **** 				"cli" "\n\t"
 389:/usr/lib/avr/include/avr/wdt.h **** 				"wdr" "\n\t"
 390:/usr/lib/avr/include/avr/wdt.h **** 				"sts %[CCPADDRESS],%[SIGNATURE]" "\n\t"
 391:/usr/lib/avr/include/avr/wdt.h **** 				"in %[TEMP_WD],%[WDTREG]" "\n\t"
 392:/usr/lib/avr/include/avr/wdt.h **** 				"cbr %[TEMP_WD],%[WDVALUE]" "\n\t"
 393:/usr/lib/avr/include/avr/wdt.h **** 				"out %[WDTREG],%[TEMP_WD]" "\n\t"
 394:/usr/lib/avr/include/avr/wdt.h **** 				"out __SREG__,__tmp_reg__" "\n\t"
 395:/usr/lib/avr/include/avr/wdt.h **** 				: /*no output */
 396:/usr/lib/avr/include/avr/wdt.h **** 				: [CCPADDRESS] "n" (_SFR_MEM_ADDR(CCP)),
 397:/usr/lib/avr/include/avr/wdt.h **** 				[SIGNATURE] "r" ((uint8_t)0xD8),
 398:/usr/lib/avr/include/avr/wdt.h **** 				[WDTREG] "I" (_SFR_IO_ADDR(_WD_CONTROL_REG)),
 399:/usr/lib/avr/include/avr/wdt.h **** 				[TEMP_WD] "d" (temp_wd),
 400:/usr/lib/avr/include/avr/wdt.h **** 				[WDVALUE] "n" (1 << WDE)
 401:/usr/lib/avr/include/avr/wdt.h **** 				: "r0"
 402:/usr/lib/avr/include/avr/wdt.h **** 				);
 403:/usr/lib/avr/include/avr/wdt.h **** 	}
 404:/usr/lib/avr/include/avr/wdt.h **** 	else if (_SFR_IO_REG_P (CCP) && !_SFR_IO_REG_P(_WD_CONTROL_REG))
 405:/usr/lib/avr/include/avr/wdt.h **** 	{
 406:/usr/lib/avr/include/avr/wdt.h ****         uint8_t temp_wd;
 407:/usr/lib/avr/include/avr/wdt.h ****         __asm__ __volatile__ (
 408:/usr/lib/avr/include/avr/wdt.h **** 				"in __tmp_reg__,__SREG__" "\n\t"
 409:/usr/lib/avr/include/avr/wdt.h **** 				"cli" "\n\t"
 410:/usr/lib/avr/include/avr/wdt.h **** 				"wdr" "\n\t"
 411:/usr/lib/avr/include/avr/wdt.h **** 				"out %[CCPADDRESS],%[SIGNATURE]" "\n\t"
 412:/usr/lib/avr/include/avr/wdt.h **** 				"lds %[TEMP_WD],%[WDTREG]" "\n\t"
 413:/usr/lib/avr/include/avr/wdt.h **** 				"cbr %[TEMP_WD],%[WDVALUE]" "\n\t"
 414:/usr/lib/avr/include/avr/wdt.h **** 				"sts %[WDTREG],%[TEMP_WD]" "\n\t"
 415:/usr/lib/avr/include/avr/wdt.h **** 				"out __SREG__,__tmp_reg__" "\n\t"
 416:/usr/lib/avr/include/avr/wdt.h **** 				: /*no output */
 417:/usr/lib/avr/include/avr/wdt.h **** 				: [CCPADDRESS] "I" (_SFR_IO_ADDR(CCP)),
 418:/usr/lib/avr/include/avr/wdt.h **** 				[SIGNATURE] "r" ((uint8_t)0xD8),
 419:/usr/lib/avr/include/avr/wdt.h **** 				[WDTREG] "n" (_SFR_MEM_ADDR(_WD_CONTROL_REG)),
 420:/usr/lib/avr/include/avr/wdt.h **** 				[TEMP_WD] "d" (temp_wd),
 421:/usr/lib/avr/include/avr/wdt.h **** 				[WDVALUE] "n" (1 << WDE)
 422:/usr/lib/avr/include/avr/wdt.h **** 				: "r0"
 423:/usr/lib/avr/include/avr/wdt.h **** 				);
 424:/usr/lib/avr/include/avr/wdt.h **** 	}
 425:/usr/lib/avr/include/avr/wdt.h **** 	else
 426:/usr/lib/avr/include/avr/wdt.h **** 	{
 427:/usr/lib/avr/include/avr/wdt.h ****         uint8_t temp_wd;
 428:/usr/lib/avr/include/avr/wdt.h ****         __asm__ __volatile__ (
 429:/usr/lib/avr/include/avr/wdt.h **** 				"in __tmp_reg__,__SREG__" "\n\t"
 430:/usr/lib/avr/include/avr/wdt.h **** 				"cli" "\n\t"
 431:/usr/lib/avr/include/avr/wdt.h **** 				"wdr" "\n\t"
 432:/usr/lib/avr/include/avr/wdt.h **** 				"out %[CCPADDRESS],%[SIGNATURE]" "\n\t"
 433:/usr/lib/avr/include/avr/wdt.h **** 				"in %[TEMP_WD],%[WDTREG]" "\n\t"
 434:/usr/lib/avr/include/avr/wdt.h **** 				"cbr %[TEMP_WD],%[WDVALUE]" "\n\t"
 435:/usr/lib/avr/include/avr/wdt.h **** 				"out %[WDTREG],%[TEMP_WD]" "\n\t"
 436:/usr/lib/avr/include/avr/wdt.h **** 				"out __SREG__,__tmp_reg__" "\n\t"
 437:/usr/lib/avr/include/avr/wdt.h **** 				: /*no output */
 438:/usr/lib/avr/include/avr/wdt.h **** 				: [CCPADDRESS] "I" (_SFR_IO_ADDR(CCP)),
 439:/usr/lib/avr/include/avr/wdt.h **** 				[SIGNATURE] "r" ((uint8_t)0xD8),
 440:/usr/lib/avr/include/avr/wdt.h **** 				[WDTREG] "I" (_SFR_IO_ADDR(_WD_CONTROL_REG)),
 441:/usr/lib/avr/include/avr/wdt.h **** 				[TEMP_WD] "d" (temp_wd),
 442:/usr/lib/avr/include/avr/wdt.h **** 				[WDVALUE] "n" (1 << WDE)
 443:/usr/lib/avr/include/avr/wdt.h **** 				: "r0"
 444:/usr/lib/avr/include/avr/wdt.h **** 				);
 445:/usr/lib/avr/include/avr/wdt.h **** 	}
 446:/usr/lib/avr/include/avr/wdt.h **** }
 447:/usr/lib/avr/include/avr/wdt.h **** 
 448:/usr/lib/avr/include/avr/wdt.h **** #else
 449:/usr/lib/avr/include/avr/wdt.h **** 
 450:/usr/lib/avr/include/avr/wdt.h **** static __inline__
 451:/usr/lib/avr/include/avr/wdt.h **** __attribute__ ((__always_inline__))
 452:/usr/lib/avr/include/avr/wdt.h **** void wdt_enable (const uint8_t value)
 453:/usr/lib/avr/include/avr/wdt.h **** {
 454:/usr/lib/avr/include/avr/wdt.h **** 	if (_SFR_IO_REG_P (_WD_CONTROL_REG))
 455:/usr/lib/avr/include/avr/wdt.h **** 	{
 456:/usr/lib/avr/include/avr/wdt.h **** 		__asm__ __volatile__ (
 703               		.loc 4 456 0
 704 0080 9FE0      		ldi r25,lo8(15)
 705 0082 88E1      		ldi r24,lo8(24)
 706               	/* #APP */
 707               	 ;  456 "/usr/lib/avr/include/avr/wdt.h" 1
 708 0084 0FB6      		in __tmp_reg__,__SREG__
 709 0086 F894      		cli
 710 0088 A895      		wdr
 711 008a 81BD      		out 33, r24
 712 008c 0FBE      		out __SREG__,__tmp_reg__
 713 008e 91BD      		out 33, r25
 714               	 	
 715               	 ;  0 "" 2
 716               	.LVL60:
 717               	/* #NOAPP */
 718               	.LBE35:
 719               	.LBE34:
 400:main.c        **** 	uchar i, j;
 401:main.c        **** 	j = 0;
 402:main.c        **** 	while (--j)
 403:main.c        **** 	{ /* USB Reset by device only required on Watchdog Reset */
 404:main.c        **** 		i = 0;
 405:main.c        **** 		while (--i)
 406:main.c        **** 			; /* delay >10ms for USB reset */
 407:main.c        **** 	}
 408:main.c        **** 
 409:main.c        **** 	wdt_enable(WDTO_2S);
 410:main.c        **** 	odDebugInit();
 411:main.c        **** 	usbInit();
 720               		.loc 2 411 0
 721 0090 00D0      		rcall usbInit
 722               	.LVL61:
 412:main.c        **** 	TIMER0_ENABLE_INPUTCAPT_INTERRUPT();
 723               		.loc 2 412 0
 724 0092 89B7      		in r24,0x39
 725 0094 8160      		ori r24,lo8(1)
 726 0096 89BF      		out 0x39,r24
 413:main.c        **** 	sei();
 727               		.loc 2 413 0
 728               	/* #APP */
 729               	 ;  413 "main.c" 1
 730 0098 7894      		sei
 731               	 ;  0 "" 2
 414:main.c        **** 	usbDeviceConnect();
 732               		.loc 2 414 0
 733               	/* #NOAPP */
 734 009a BC9A      		sbi 0x17,4
 735 009c C49A      		sbi 0x18,4
 415:main.c        **** 	LED_RED_ON();
 736               		.loc 2 415 0
 737 009e C39A      		sbi 0x18,3
 416:main.c        **** 	LED_SENSOR_INIT();
 738               		.loc 2 416 0
 739 00a0 D29A      		sbi 0x1a,2
 740 00a2 B89A      		sbi 0x17,0
 741 00a4 C098      		cbi 0x18,0
 742 00a6 DA98      		cbi 0x1b,2
 417:main.c        **** 	LED_BUTTON_OFF();
 743               		.loc 2 417 0
 744 00a8 C198      		cbi 0x18,1
 418:main.c        **** 	Timer_Set(TIMER_LED_BLINK,TIMER_LED_STARTUP_TIMEOUT);
 745               		.loc 2 418 0
 746 00aa 60ED      		ldi r22,lo8(-48)
 747 00ac 77E0      		ldi r23,lo8(7)
 748 00ae 80E0      		ldi r24,0
 749 00b0 00D0      		rcall Timer_Set
 750               	.LVL62:
 419:main.c        **** 	Timer_Set(TIMER_LED_SENSOR_BLINK,2);
 751               		.loc 2 419 0
 752 00b2 62E0      		ldi r22,lo8(2)
 753 00b4 70E0      		ldi r23,0
 754 00b6 81E0      		ldi r24,lo8(1)
 755 00b8 00D0      		rcall Timer_Set
 756               	.LVL63:
 420:main.c        **** 	Timer_Set(TIMER_LED_BUTTON_BLINK,TIMER_LED_STARTUP_TIMEOUT);
 757               		.loc 2 420 0
 758 00ba 60ED      		ldi r22,lo8(-48)
 759 00bc 77E0      		ldi r23,lo8(7)
 760 00be 82E0      		ldi r24,lo8(2)
 761 00c0 00D0      		rcall Timer_Set
 762               	.LVL64:
 421:main.c        **** 	filtered_val = filter_iir2(&filter_iir2_data,1000);
 763               		.loc 2 421 0
 764 00c2 68EE      		ldi r22,lo8(-24)
 765 00c4 73E0      		ldi r23,lo8(3)
 766 00c6 C601      		movw r24,r12
 767 00c8 00D0      		rcall filter_iir2
 768               	.LVL65:
 769 00ca 0F90      		pop __tmp_reg__
 770 00cc 0F90      		pop __tmp_reg__
 385:main.c        **** 	static uint8_t led_sensor_nsample = 5;
 771               		.loc 2 385 0
 772 00ce 00E0      		ldi r16,0
 383:main.c        **** 	uint16_t led_sensor_values[5];
 773               		.loc 2 383 0
 774 00d0 80E0      		ldi r24,0
 375:main.c        **** 	unsigned char buttonMask = 0;
 775               		.loc 2 375 0
 776 00d2 10E0      		ldi r17,0
 422:main.c        **** 	// main event loop
 423:main.c        **** 	for (;;)
 424:main.c        **** 	{
 425:main.c        **** 		//update delta time
 426:main.c        **** 		{
 427:main.c        **** 			uint8_t temp = TCNT1;
 428:main.c        **** 			led_sensor_delta_time += (temp - led_sensor_prev_time) & 0xFF;
 429:main.c        **** 			led_sensor_prev_time = temp;
 430:main.c        **** 		}
 431:main.c        **** 
 432:main.c        **** 		//Watchdog
 433:main.c        **** 		wdt_reset();
 434:main.c        **** 
 435:main.c        **** 		//Timers
 436:main.c        **** 		/////////////////////////////////////////////////////
 437:main.c        **** 		if (TIFR & _BV(TOV1)) {
 438:main.c        **** 			TIFR |= _BV(TOV1);
 439:main.c        **** 			Timers_DecreaseAll(TIMER1_OVERFLOW_PERIOD_MS_X256);
 440:main.c        **** 		}
 441:main.c        **** 
 442:main.c        **** 		//usb
 443:main.c        **** 		/////////////////////////////////////////////////////
 444:main.c        **** 		usbPoll();
 445:main.c        **** 
 446:main.c        **** 		//
 447:main.c        **** 		/////////////////////////////////////////////////////
 448:main.c        **** 		if (BUTTON_IS_PRESSED()) {
 449:main.c        **** 			LED_BUTTON_ON();
 450:main.c        **** 			if (!(buttonPressed)) {
 451:main.c        **** 				//uint16_t us = capture_diff * 1000000L / F_TIMER0;
 452:main.c        **** 				//uint16_t us_max = capture_diff_max * 1000000L / F_TIMER0;
 453:main.c        **** 				printf_P(PSTR("Button!\r\n"));
 454:main.c        **** 				//fprintf_P(&uartsw_stream,PSTR("stat diff=%u(%uus) max=%u(%uus) #=%u!\r\n"),capture_diff,us,ca
 455:main.c        **** 			}
 456:main.c        **** 			buttonPressed = 1;
 777               		.loc 2 456 0
 778 00d4 6624      		clr r6
 779 00d6 6394      		inc r6
 453:main.c        **** 				//fprintf_P(&uartsw_stream,PSTR("stat diff=%u(%uus) max=%u(%uus) #=%u!\r\n"),capture_diff,us,ca
 780               		.loc 2 453 0
 781 00d8 90E0      		ldi r25,lo8(__c.2487)
 782 00da A92E      		mov r10,r25
 783 00dc 90E0      		ldi r25,hi8(__c.2487)
 784 00de B92E      		mov r11,r25
 785               	.LBB36:
 457:main.c        **** 			buttonMask |= 0x1;
 458:main.c        **** 		}
 459:main.c        **** 		else {
 460:main.c        **** 			//LED_BUTTON_OFF();
 461:main.c        **** 			buttonMask &= ~0x1;
 462:main.c        **** 			buttonPressed = 0;
 463:main.c        **** 		}
 464:main.c        **** 
 465:main.c        **** 		//USB interrupt
 466:main.c        **** 		/////////////////////////////////////////////////////
 467:main.c        **** 		if (usbInterruptIsReady())
 468:main.c        **** 		{
 469:main.c        **** 			if (buttonMask != reportBuffer.mouse.buttonMask) {
 470:main.c        **** 				reportBuffer.mouse.report_id = report_id_mouse;
 471:main.c        **** 				reportBuffer.mouse.buttonMask = buttonMask;
 472:main.c        **** 				usbSetInterrupt((uchar*)&reportBuffer.mouse, sizeof(reportBuffer.mouse));
 473:main.c        **** 
 474:main.c        **** 			}
 475:main.c        **** 			else if (1) {
 476:main.c        **** 
 477:main.c        **** 			}
 478:main.c        **** 
 479:main.c        **** 		}
 480:main.c        **** 
 481:main.c        **** 		//LED Timer
 482:main.c        **** 		/////////////////////////////////////////////////////
 483:main.c        **** 		if (Timer_HasExpired(TIMER_LED_BLINK)) {
 484:main.c        **** 			Timer_Set(TIMER_LED_BLINK,TIMER_LED_BLINK_TIMEOUT*4);
 485:main.c        **** 			//LED_RED_CHANGE();
 486:main.c        **** 			setColorOneLed(260,100,100,100);
 487:main.c        **** 		}
 488:main.c        **** 		if (Timer_HasExpired(TIMER_LED_BUTTON_BLINK)) {
 489:main.c        **** 			Timer_Set(TIMER_LED_BUTTON_BLINK,TIMER_LED_BLINK_TIMEOUT);
 490:main.c        **** 			LED_BUTTON_CHANGE();
 491:main.c        **** 		}
 492:main.c        **** 
 493:main.c        **** 
 494:main.c        **** 		//ADC measurement of led sensor
 495:main.c        **** 		{
 496:main.c        **** 			if (led_sensor_delta_time >= us_to_ticks(4000) * led_sensor_nsample)
 497:main.c        **** 			{
 498:main.c        **** 				LED_SENSOR_ADC_START();
 499:main.c        **** 				led_sensor_nsample++;
 500:main.c        **** 			}
 501:main.c        **** 			if (LED_SENSOR_ADC_IS_LED_SENSOR_CHANNEL() && LED_SENSOR_ADC_IS_COMPLETED()) {
 502:main.c        **** 				if (led_sensor_nvalues < elements_of(led_sensor_values)) {
 503:main.c        **** 					led_sensor_values[led_sensor_nvalues] = ADC;
 504:main.c        **** 					if (led_sensor_nvalues == 4) {
 505:main.c        **** 						int16_t val = led_sensor_values[led_sensor_nvalues];
 506:main.c        **** 						if ((led_sensor_last_random & 0x1)) {
 507:main.c        **** 							val = -val;
 508:main.c        **** 						}
 509:main.c        **** 						filtered_val = filter_iir2(&filter_iir2_data,val);
 510:main.c        **** 					}
 511:main.c        **** 				}
 512:main.c        **** 				led_sensor_nvalues++;
 513:main.c        **** 				LED_SENSOR_ADC_DONE();
 514:main.c        **** 			}
 515:main.c        **** 		}
 516:main.c        **** 
 517:main.c        **** 
 518:main.c        **** 		if (BOOTLOADER_CONDITION) {
 519:main.c        **** 			cli();
 520:main.c        **** 			BOOTLOADER_CONDITION_INIT();
 521:main.c        **** 			void (*reset_vec)(void) = 0;
 522:main.c        **** 			reset_vec();
 786               		.loc 2 522 0
 787 00e0 812C      		mov r8,__zero_reg__
 788 00e2 912C      		mov r9,__zero_reg__
 789               	.LVL66:
 790               	.L19:
 791               	.LBE36:
 792               	.LBB37:
 427:main.c        **** 			led_sensor_delta_time += (temp - led_sensor_prev_time) & 0xFF;
 793               		.loc 2 427 0
 794 00e4 7EB4      		in r7,0x2e
 795               	.LVL67:
 428:main.c        **** 			led_sensor_prev_time = temp;
 796               		.loc 2 428 0
 797 00e6 272D      		mov r18,r7
 798 00e8 281B      		sub r18,r24
 799 00ea 8091 0000 		lds r24,led_sensor_delta_time.2466
 800 00ee 9091 0000 		lds r25,led_sensor_delta_time.2466+1
 801 00f2 820F      		add r24,r18
 802 00f4 911D      		adc r25,__zero_reg__
 803 00f6 9093 0000 		sts led_sensor_delta_time.2466+1,r25
 804 00fa 8093 0000 		sts led_sensor_delta_time.2466,r24
 805               	.LVL68:
 806               	.LBE37:
 433:main.c        **** 
 807               		.loc 2 433 0
 808               	/* #APP */
 809               	 ;  433 "main.c" 1
 810 00fe A895      		wdr
 811               	 ;  0 "" 2
 437:main.c        **** 			TIFR |= _BV(TOV1);
 812               		.loc 2 437 0
 813               	/* #NOAPP */
 814 0100 08B6      		in __tmp_reg__,0x38
 815 0102 02FE      		sbrs __tmp_reg__,2
 816 0104 00C0      		rjmp .L20
 438:main.c        **** 			Timers_DecreaseAll(TIMER1_OVERFLOW_PERIOD_MS_X256);
 817               		.loc 2 438 0
 818 0106 88B7      		in r24,0x38
 819 0108 8460      		ori r24,lo8(4)
 820 010a 88BF      		out 0x38,r24
 439:main.c        **** 		}
 821               		.loc 2 439 0
 822 010c 80E0      		ldi r24,0
 823 010e 92E0      		ldi r25,lo8(2)
 824 0110 00D0      		rcall Timers_DecreaseAll
 825               	.LVL69:
 826               	.L20:
 444:main.c        **** 
 827               		.loc 2 444 0
 828 0112 00D0      		rcall usbPoll
 829               	.LVL70:
 448:main.c        **** 			LED_BUTTON_ON();
 830               		.loc 2 448 0
 831 0114 CC99      		sbic 0x19,4
 832 0116 00C0      		rjmp .L34
 449:main.c        **** 			if (!(buttonPressed)) {
 833               		.loc 2 449 0
 834 0118 C19A      		sbi 0x18,1
 450:main.c        **** 				//uint16_t us = capture_diff * 1000000L / F_TIMER0;
 835               		.loc 2 450 0
 836 011a 1111      		cpse r17,__zero_reg__
 837 011c 00C0      		rjmp .L35
 453:main.c        **** 				//fprintf_P(&uartsw_stream,PSTR("stat diff=%u(%uus) max=%u(%uus) #=%u!\r\n"),capture_diff,us,ca
 838               		.loc 2 453 0
 839 011e BF92      		push r11
 840 0120 AF92      		push r10
 841 0122 00D0      		rcall printf_P
 842               	.LVL71:
 843 0124 0F90      		pop __tmp_reg__
 844 0126 0F90      		pop __tmp_reg__
 845 0128 00C0      		rjmp .L35
 846               	.L34:
 462:main.c        **** 		}
 847               		.loc 2 462 0
 848 012a 10E0      		ldi r17,0
 849               	.LVL72:
 850 012c 00C0      		rjmp .L21
 851               	.LVL73:
 852               	.L35:
 456:main.c        **** 			buttonMask |= 0x1;
 853               		.loc 2 456 0
 854 012e 11E0      		ldi r17,lo8(1)
 855               	.LVL74:
 856               	.L21:
 467:main.c        **** 		{
 857               		.loc 2 467 0
 858 0130 8091 0000 		lds r24,usbTxStatus1
 859 0134 84FF      		sbrs r24,4
 860 0136 00C0      		rjmp .L22
 469:main.c        **** 				reportBuffer.mouse.report_id = report_id_mouse;
 861               		.loc 2 469 0
 862 0138 8091 0000 		lds r24,reportBuffer+1
 863 013c 1817      		cp r17,r24
 864 013e 01F0      		breq .L22
 470:main.c        **** 				reportBuffer.mouse.buttonMask = buttonMask;
 865               		.loc 2 470 0
 866 0140 6092 0000 		sts reportBuffer,r6
 471:main.c        **** 				usbSetInterrupt((uchar*)&reportBuffer.mouse, sizeof(reportBuffer.mouse));
 867               		.loc 2 471 0
 868 0144 1093 0000 		sts reportBuffer+1,r17
 472:main.c        **** 
 869               		.loc 2 472 0
 870 0148 62E0      		ldi r22,lo8(2)
 871 014a 80E0      		ldi r24,lo8(reportBuffer)
 872 014c 90E0      		ldi r25,hi8(reportBuffer)
 873 014e 00D0      		rcall usbSetInterrupt
 874               	.LVL75:
 875               	.L22:
 483:main.c        **** 			Timer_Set(TIMER_LED_BLINK,TIMER_LED_BLINK_TIMEOUT*4);
 876               		.loc 2 483 0
 877 0150 80E0      		ldi r24,0
 878 0152 00D0      		rcall Timer_HasExpired
 879               	.LVL76:
 880 0154 892B      		or r24,r25
 881 0156 01F4      		brne .L23
 882               	.L29:
 488:main.c        **** 			Timer_Set(TIMER_LED_BUTTON_BLINK,TIMER_LED_BLINK_TIMEOUT);
 883               		.loc 2 488 0
 884 0158 82E0      		ldi r24,lo8(2)
 885 015a 00D0      		rcall Timer_HasExpired
 886               	.LVL77:
 887 015c 892B      		or r24,r25
 888 015e 01F0      		breq .L25
 489:main.c        **** 			LED_BUTTON_CHANGE();
 889               		.loc 2 489 0
 890 0160 64EF      		ldi r22,lo8(-12)
 891 0162 71E0      		ldi r23,lo8(1)
 892 0164 82E0      		ldi r24,lo8(2)
 893 0166 00D0      		rcall Timer_Set
 894               	.LVL78:
 490:main.c        **** 		}
 895               		.loc 2 490 0
 896 0168 98B3      		in r25,0x18
 897 016a 82E0      		ldi r24,lo8(2)
 898 016c 8927      		eor r24,r25
 899 016e 88BB      		out 0x18,r24
 900 0170 00C0      		rjmp .L25
 901               	.L23:
 484:main.c        **** 			//LED_RED_CHANGE();
 902               		.loc 2 484 0
 903 0172 60ED      		ldi r22,lo8(-48)
 904 0174 77E0      		ldi r23,lo8(7)
 905 0176 80E0      		ldi r24,0
 906 0178 00D0      		rcall Timer_Set
 907               	.LVL79:
 908               	.LBB38:
 909               	.LBB39:
 331:main.c        **** 	send_strip_byte(0);
 910               		.loc 2 331 0
 911 017a 80E0      		ldi r24,0
 912 017c 00D0      		rcall send_strip_byte
 913               	.LVL80:
 332:main.c        **** 	send_strip_byte(0);
 914               		.loc 2 332 0
 915 017e 80E0      		ldi r24,0
 916 0180 00D0      		rcall send_strip_byte
 917               	.LVL81:
 333:main.c        **** 	send_strip_byte(0);
 918               		.loc 2 333 0
 919 0182 80E0      		ldi r24,0
 920 0184 00D0      		rcall send_strip_byte
 921               	.LVL82:
 334:main.c        **** 	send_strip_byte(0);
 922               		.loc 2 334 0
 923 0186 80E0      		ldi r24,0
 924 0188 00D0      		rcall send_strip_byte
 925               	.LVL83:
 335:main.c        **** 
 926               		.loc 2 335 0
 927 018a 80E0      		ldi r24,0
 928 018c 00D0      		rcall send_strip_byte
 929               	.LVL84:
 930               	.LBB40:
 354:main.c        **** 		RGB888 rgb;
 931               		.loc 2 354 0
 932 018e E12C      		mov r14,__zero_reg__
 933 0190 F12C      		mov r15,__zero_reg__
 934               	.LVL85:
 935               	.L27:
 936               	.LBB41:
 357:main.c        **** 			rgb = getRainbowColor(i);
 937               		.loc 2 357 0
 938 0192 34E0      		ldi r19,4
 939 0194 E316      		cp r14,r19
 940 0196 31E0      		ldi r19,1
 941 0198 F306      		cpc r15,r19
 942 019a 04F4      		brge .L36
 358:main.c        **** 		} else {
 943               		.loc 2 358 0
 944 019c C701      		movw r24,r14
 945 019e 00D0      		rcall getRainbowColor
 946               	.LVL86:
 947 01a0 962F      		mov r25,r22
 948               	.LVL87:
 949 01a2 672F      		mov r22,r23
 950               	.LVL88:
 951 01a4 00C0      		rjmp .L26
 952               	.LVL89:
 953               	.L36:
 362:main.c        **** 		}
 954               		.loc 2 362 0
 955 01a6 80E0      		ldi r24,0
 361:main.c        **** 			rgb.color_[2] = 0;
 956               		.loc 2 361 0
 957 01a8 60E0      		ldi r22,0
 360:main.c        **** 			rgb.color_[1] = 0;
 958               		.loc 2 360 0
 959 01aa 90E0      		ldi r25,0
 960               	.LVL90:
 961               	.L26:
 364:main.c        **** 	}
 962               		.loc 2 364 0
 963 01ac 482F      		mov r20,r24
 964 01ae 892F      		mov r24,r25
 965               	.LVL91:
 966 01b0 00D0      		rcall send_color
 967               	.LVL92:
 968               	.LBE41:
 354:main.c        **** 		RGB888 rgb;
 969               		.loc 2 354 0
 970 01b2 8FEF      		ldi r24,-1
 971 01b4 E81A      		sub r14,r24
 972 01b6 F80A      		sbc r15,r24
 973               	.LVL93:
 974 01b8 9CE2      		ldi r25,44
 975 01ba E916      		cp r14,r25
 976 01bc 91E0      		ldi r25,1
 977 01be F906      		cpc r15,r25
 978 01c0 01F4      		brne .L27
 979 01c2 86E9      		ldi r24,lo8(-106)
 980 01c4 E82E      		mov r14,r24
 981 01c6 F12C      		mov r15,__zero_reg__
 982               	.LVL94:
 983               	.L28:
 984               	.LBE40:
 985               	.LBB42:
 367:main.c        **** 	}
 986               		.loc 2 367 0
 987 01c8 80E0      		ldi r24,0
 988 01ca 00D0      		rcall send_strip_byte
 989               	.LVL95:
 990 01cc E1E0      		ldi r30,1
 991 01ce EE1A      		sub r14,r30
 992 01d0 F108      		sbc r15,__zero_reg__
 993               	.LVL96:
 366:main.c        **** 		send_strip_byte(0x00);
 994               		.loc 2 366 0
 995 01d2 01F4      		brne .L28
 996 01d4 00C0      		rjmp .L29
 997               	.LVL97:
 998               	.L25:
 999               	.LBE42:
 1000               	.LBE39:
 1001               	.LBE38:
 496:main.c        **** 			{
 1002               		.loc 2 496 0
 1003 01d6 8091 0000 		lds r24,led_sensor_delta_time.2466
 1004 01da 9091 0000 		lds r25,led_sensor_delta_time.2466+1
 1005 01de 1C01      		movw r2,r24
 1006 01e0 412C      		mov r4,__zero_reg__
 1007 01e2 512C      		mov r5,__zero_reg__
 1008 01e4 6091 0000 		lds r22,led_sensor_nsample.2471
 1009 01e8 70E0      		ldi r23,0
 1010 01ea 80E0      		ldi r24,0
 1011 01ec 90E0      		ldi r25,0
 1012 01ee 23E0      		ldi r18,lo8(3)
 1013 01f0 32E0      		ldi r19,lo8(2)
 1014 01f2 40E0      		ldi r20,0
 1015 01f4 50E0      		ldi r21,0
 1016 01f6 00D0      		rcall __mulsi3
 1017               	.LVL98:
 1018 01f8 2616      		cp r2,r22
 1019 01fa 3706      		cpc r3,r23
 1020 01fc 4806      		cpc r4,r24
 1021 01fe 5906      		cpc r5,r25
 1022 0200 00F0      		brlo .L30
 498:main.c        **** 				led_sensor_nsample++;
 1023               		.loc 2 498 0
 1024 0202 FEE8      		ldi r31,lo8(-114)
 1025 0204 F7B9      		out 0x7,r31
 1026 0206 369A      		sbi 0x6,6
 499:main.c        **** 			}
 1027               		.loc 2 499 0
 1028 0208 8091 0000 		lds r24,led_sensor_nsample.2471
 1029 020c 8F5F      		subi r24,lo8(-(1))
 1030 020e 8093 0000 		sts led_sensor_nsample.2471,r24
 1031               	.L30:
 501:main.c        **** 				if (led_sensor_nvalues < elements_of(led_sensor_values)) {
 1032               		.loc 2 501 0
 1033 0212 87B1      		in r24,0x7
 1034 0214 8F73      		andi r24,lo8(63)
 1035 0216 8E30      		cpi r24,lo8(14)
 1036 0218 01F4      		brne .L31
 501:main.c        **** 				if (led_sensor_nvalues < elements_of(led_sensor_values)) {
 1037               		.loc 2 501 0 is_stmt 0 discriminator 1
 1038 021a 349B      		sbis 0x6,4
 1039 021c 00C0      		rjmp .L31
 502:main.c        **** 					led_sensor_values[led_sensor_nvalues] = ADC;
 1040               		.loc 2 502 0 is_stmt 1
 1041 021e 0530      		cpi r16,lo8(5)
 1042 0220 00F4      		brsh .L32
 503:main.c        **** 					if (led_sensor_nvalues == 4) {
 1043               		.loc 2 503 0
 1044 0222 64B1      		in r22,0x4
 1045 0224 75B1      		in r23,0x4+1
 504:main.c        **** 						int16_t val = led_sensor_values[led_sensor_nvalues];
 1046               		.loc 2 504 0
 1047 0226 0430      		cpi r16,lo8(4)
 1048 0228 01F4      		brne .L32
 1049               	.LVL99:
 1050               	.LBB43:
 509:main.c        **** 					}
 1051               		.loc 2 509 0
 1052 022a C601      		movw r24,r12
 1053 022c 00D0      		rcall filter_iir2
 1054               	.LVL100:
 1055               	.L32:
 1056               	.LBE43:
 512:main.c        **** 				LED_SENSOR_ADC_DONE();
 1057               		.loc 2 512 0
 1058 022e 0F5F      		subi r16,lo8(-(1))
 1059               	.LVL101:
 513:main.c        **** 			}
 1060               		.loc 2 513 0
 1061 0230 349A      		sbi 0x6,4
 1062               	.L31:
 518:main.c        **** 			cli();
 1063               		.loc 2 518 0
 1064 0232 CB9B      		sbis 0x19,3
 1065 0234 00C0      		rjmp .L48
 1066               	.L33:
 374:main.c        **** 	unsigned char buttonPressed = 0;
 1067               		.loc 2 374 0
 1068 0236 872D      		mov r24,r7
 1069 0238 00C0      		rjmp .L19
 1070               	.L48:
 1071               	.LBB44:
 519:main.c        **** 			BOOTLOADER_CONDITION_INIT();
 1072               		.loc 2 519 0
 1073               	/* #APP */
 1074               	 ;  519 "main.c" 1
 1075 023a F894      		cli
 1076               	 ;  0 "" 2
 520:main.c        **** 			void (*reset_vec)(void) = 0;
 1077               		.loc 2 520 0
 1078               	/* #NOAPP */
 1079 023c D398      		cbi 0x1a,3
 1080 023e DB9A      		sbi 0x1b,3
 1081               	.LVL102:
 1082               		.loc 2 522 0
 1083 0240 F401      		movw r30,r8
 1084 0242 0995      		icall
 1085               	.LVL103:
 1086 0244 00C0      		rjmp .L33
 1087               	.LBE44:
 1088               		.cfi_endproc
 1089               	.LFE32:
 1090               		.size	main, .-main
 1091               		.data
 1092               		.type	led_sensor_nsample.2471, @object
 1093               		.size	led_sensor_nsample.2471, 1
 1094               	led_sensor_nsample.2471:
 1095 0000 05        		.byte	5
 1096               		.section	.progmem.data,"a",@progbits
 1097               		.type	__c.2487, @object
 1098               		.size	__c.2487, 10
 1099               	__c.2487:
 1100 0000 4275 7474 		.string	"Button!\r\n"
 1100      6F6E 210D 
 1100      0A00 
 1101               		.local	led_sensor_delta_time.2466
 1102               		.comm	led_sensor_delta_time.2466,2,1
 1103               		.type	__c.2476, @object
 1104               		.size	__c.2476, 4
 1105               	__c.2476:
 1106 000a 4221 0A00 		.string	"B!\n"
 1107               	.global	rainbow_colors
 1108               		.data
 1109               		.type	rainbow_colors, @object
 1110               		.size	rainbow_colors, 21
 1111               	rainbow_colors:
 1112 0001 C8        		.byte	-56
 1113 0002 00        		.byte	0
 1114 0003 C8        		.byte	-56
 1115 0004 C8        		.byte	-56
 1116 0005 00        		.byte	0
 1117 0006 00        		.byte	0
 1118 0007 C8        		.byte	-56
 1119 0008 C8        		.byte	-56
 1120 0009 00        		.byte	0
 1121 000a 00        		.byte	0
 1122 000b C8        		.byte	-56
 1123 000c 00        		.byte	0
 1124 000d 00        		.byte	0
 1125 000e C8        		.byte	-56
 1126 000f C8        		.byte	-56
 1127 0010 00        		.byte	0
 1128 0011 00        		.byte	0
 1129 0012 C8        		.byte	-56
 1130 0013 C8        		.byte	-56
 1131 0014 00        		.byte	0
 1132 0015 C8        		.byte	-56
 1133               		.local	reportBuffer
 1134               		.comm	reportBuffer,2,1
 1135               	.global	usbDescriptorHidReport
 1136               		.section	.progmem.data,"a",@progbits
 1137               		.type	usbDescriptorHidReport, @object
 1138               		.size	usbDescriptorHidReport, 80
 1139               	usbDescriptorHidReport:
 1140 000e 05        		.byte	5
 1141 000f 01        		.byte	1
 1142 0010 09        		.byte	9
 1143 0011 02        		.byte	2
 1144 0012 A1        		.byte	-95
 1145 0013 01        		.byte	1
 1146 0014 09        		.byte	9
 1147 0015 01        		.byte	1
 1148 0016 A1        		.byte	-95
 1149 0017 00        		.byte	0
 1150 0018 05        		.byte	5
 1151 0019 09        		.byte	9
 1152 001a 19        		.byte	25
 1153 001b 01        		.byte	1
 1154 001c 29        		.byte	41
 1155 001d 03        		.byte	3
 1156 001e 15        		.byte	21
 1157 001f 00        		.byte	0
 1158 0020 25        		.byte	37
 1159 0021 01        		.byte	1
 1160 0022 95        		.byte	-107
 1161 0023 03        		.byte	3
 1162 0024 75        		.byte	117
 1163 0025 01        		.byte	1
 1164 0026 85        		.byte	-123
 1165 0027 01        		.byte	1
 1166 0028 81        		.byte	-127
 1167 0029 02        		.byte	2
 1168 002a 95        		.byte	-107
 1169 002b 01        		.byte	1
 1170 002c 75        		.byte	117
 1171 002d 05        		.byte	5
 1172 002e 81        		.byte	-127
 1173 002f 03        		.byte	3
 1174 0030 C0        		.byte	-64
 1175 0031 C0        		.byte	-64
 1176 0032 0B        		.byte	11
 1177 0033 00        		.byte	0
 1178 0034 00        		.byte	0
 1179 0035 01        		.byte	1
 1180 0036 00        		.byte	0
 1181 0037 A1        		.byte	-95
 1182 0038 00        		.byte	0
 1183 0039 05        		.byte	5
 1184 003a 01        		.byte	1
 1185 003b 75        		.byte	117
 1186 003c 10        		.byte	16
 1187 003d 95        		.byte	-107
 1188 003e 01        		.byte	1
 1189 003f 09        		.byte	9
 1190 0040 00        		.byte	0
 1191 0041 85        		.byte	-123
 1192 0042 7C        		.byte	124
 1193 0043 B1        		.byte	-79
 1194 0044 02        		.byte	2
 1195 0045 09        		.byte	9
 1196 0046 00        		.byte	0
 1197 0047 85        		.byte	-123
 1198 0048 7D        		.byte	125
 1199 0049 B1        		.byte	-79
 1200 004a 02        		.byte	2
 1201 004b 75        		.byte	117
 1202 004c 08        		.byte	8
 1203 004d 95        		.byte	-107
 1204 004e 44        		.byte	68
 1205 004f 09        		.byte	9
 1206 0050 00        		.byte	0
 1207 0051 85        		.byte	-123
 1208 0052 7E        		.byte	126
 1209 0053 B1        		.byte	-79
 1210 0054 00        		.byte	0
 1211 0055 09        		.byte	9
 1212 0056 00        		.byte	0
 1213 0057 95        		.byte	-107
 1214 0058 09        		.byte	9
 1215 0059 85        		.byte	-123
 1216 005a 7F        		.byte	127
 1217 005b B1        		.byte	-79
 1218 005c 00        		.byte	0
 1219 005d C0        		.byte	-64
 1220               		.local	captured
 1221               		.comm	captured,2,1
 1222               		.local	capture_diff_max
 1223               		.comm	capture_diff_max,2,1
 1224               		.local	capture_diff
 1225               		.comm	capture_diff,2,1
 1226               		.text
 1227               	.Letext0:
 1228               		.file 5 "/usr/lib/avr/include/stdint.h"
 1229               		.file 6 "/usr/lib/avr/include/stdio.h"
 1230               		.file 7 "../usbdrv/usbdrv.h"
 1231               		.file 8 "./usbconfig.h"
 1232               		.file 9 "./timer_ids.h"
 1233               		.file 10 "../util/q7_8_t.h"
 1234               		.file 11 "hid.h"
 1235               		.file 12 "../util/usbstream.h"
 1236               		.file 13 "../util/timers.h"