   1               		.file	"osccal.c"
   2               	__SP_H__ = 0x3e
   3               	__SP_L__ = 0x3d
   4               	__SREG__ = 0x3f
   5               	__tmp_reg__ = 0
   6               	__zero_reg__ = 1
   7               		.text
   8               	.Ltext0:
   9               		.cfi_sections	.debug_frame
  10               	.global	calibrateOscillator
  11               		.type	calibrateOscillator, @function
  12               	calibrateOscillator:
  13               	.LFB2:
  14               		.file 1 "../osccal/osccal.c"
   1:../osccal/osccal.c **** /* Name: osccal.c
   2:../osccal/osccal.c ****  * Author: Christian Starkjohann
   3:../osccal/osccal.c ****  * Creation Date: 2008-04-10
   4:../osccal/osccal.c ****  * Tabsize: 4
   5:../osccal/osccal.c ****  * Copyright: (c) 2008 by OBJECTIVE DEVELOPMENT Software GmbH
   6:../osccal/osccal.c ****  * License: GNU GPL v2 (see License.txt), GNU GPL v3 or proprietary (CommercialLicense.txt)
   7:../osccal/osccal.c ****  * This Revision: $Id: osccal.c 762 2009-08-12 17:10:30Z cs $
   8:../osccal/osccal.c ****  */
   9:../osccal/osccal.c **** 
  10:../osccal/osccal.c **** #include <avr/io.h>
  11:../osccal/osccal.c **** 
  12:../osccal/osccal.c **** #ifndef uchar
  13:../osccal/osccal.c **** #define uchar   unsigned char
  14:../osccal/osccal.c **** #endif
  15:../osccal/osccal.c **** 
  16:../osccal/osccal.c **** #include "usbdrv.h"
  17:../osccal/osccal.c **** 
  18:../osccal/osccal.c **** /* ------------------------------------------------------------------------- */
  19:../osccal/osccal.c **** /* ------------------------ Oscillator Calibration ------------------------- */
  20:../osccal/osccal.c **** /* ------------------------------------------------------------------------- */
  21:../osccal/osccal.c **** 
  22:../osccal/osccal.c **** /* Calibrate the RC oscillator. Our timing reference is the Start Of Frame
  23:../osccal/osccal.c ****  * signal (a single SE0 bit) repeating every millisecond immediately after
  24:../osccal/osccal.c ****  * a USB RESET. We first do a binary search for the OSCCAL value and then
  25:../osccal/osccal.c ****  * optimize this value with a neighboorhod search.
  26:../osccal/osccal.c ****  */
  27:../osccal/osccal.c **** void    calibrateOscillator(void)
  28:../osccal/osccal.c **** {
  15               		.loc 1 28 0
  16               		.cfi_startproc
  17 0000 A0E0      		ldi r26,0
  18 0002 B0E0      		ldi r27,0
  19 0004 E0E0      		ldi r30,lo8(gs(1f))
  20 0006 F0E0      		ldi r31,hi8(gs(1f))
  21 0008 00C0      		rjmp __prologue_saves__+((18 - 7) * 2)
  22               	1:
  23               	.LCFI0:
  24               		.cfi_offset 13, -2
  25               		.cfi_offset 14, -3
  26               		.cfi_offset 15, -4
  27               		.cfi_offset 16, -5
  28               		.cfi_offset 17, -6
  29               		.cfi_offset 28, -7
  30               		.cfi_offset 29, -8
  31               		.cfi_def_cfa_offset 9
  32               	/* prologue: function */
  33               	/* frame size = 0 */
  34               	/* stack size = 7 */
  35               	.L__stack_usage = 7
  36               	.LVL0:
  37               		.loc 1 28 0
  38 000a 08E0      		ldi r16,lo8(8)
  39 000c 10E0      		ldi r17,0
  29:../osccal/osccal.c **** uchar       step = 128;
  30:../osccal/osccal.c **** uchar       trialValue = 0, optimumValue;
  40               		.loc 1 30 0
  41 000e C0E0      		ldi r28,0
  29:../osccal/osccal.c **** uchar       step = 128;
  42               		.loc 1 29 0
  43 0010 D0E8      		ldi r29,lo8(-128)
  44               	.LVL1:
  45               	.L3:
  31:../osccal/osccal.c **** int         x, optimumDev, targetValue = (unsigned)(1499 * (double)F_CPU / 10.5e6 + 0.5);
  32:../osccal/osccal.c **** 
  33:../osccal/osccal.c ****     /* do a binary search: */
  34:../osccal/osccal.c ****     do{
  35:../osccal/osccal.c ****         OSCCAL = trialValue + step;
  46               		.loc 1 35 0
  47 0012 DD2E      		mov r13,r29
  48 0014 DC0E      		add r13,r28
  49 0016 D1BE      		out 0x31,r13
  36:../osccal/osccal.c ****         x = usbMeasureFrameLength();    /* proportional to current real frequency */
  50               		.loc 1 36 0
  51 0018 00D0      		rcall usbMeasureFrameLength
  52               	.LVL2:
  53 001a 7C01      		movw r14,r24
  54               	.LVL3:
  37:../osccal/osccal.c ****         if(x < targetValue)             /* frequency still too low */
  55               		.loc 1 37 0
  56 001c 84E3      		ldi r24,52
  57 001e E816      		cp r14,r24
  58 0020 89E0      		ldi r24,9
  59 0022 F806      		cpc r15,r24
  60 0024 04F4      		brge .L2
  38:../osccal/osccal.c ****             trialValue += step;
  61               		.loc 1 38 0
  62 0026 CD2D      		mov r28,r13
  63               	.LVL4:
  64               	.L2:
  39:../osccal/osccal.c ****         step >>= 1;
  65               		.loc 1 39 0
  66 0028 D695      		lsr r29
  67               	.LVL5:
  68 002a 0150      		subi r16,1
  69 002c 1109      		sbc r17,__zero_reg__
  40:../osccal/osccal.c ****     }while(step > 0);
  70               		.loc 1 40 0
  71 002e 01F4      		brne .L3
  72               	.LVL6:
  41:../osccal/osccal.c ****     /* We have a precision of +/- 1 for optimum OSCCAL here */
  42:../osccal/osccal.c ****     /* now do a neighborhood search for optimum value */
  43:../osccal/osccal.c ****     optimumValue = trialValue;
  44:../osccal/osccal.c ****     optimumDev = x; /* this is certainly far away from optimum */
  45:../osccal/osccal.c ****     for(OSCCAL = trialValue - 1; OSCCAL <= trialValue + 1; OSCCAL++){
  73               		.loc 1 45 0
  74 0030 8FEF      		ldi r24,lo8(-1)
  75 0032 8C0F      		add r24,r28
  76 0034 81BF      		out 0x31,r24
  77 0036 0C2F      		mov r16,r28
  78 0038 10E0      		ldi r17,0
  79 003a 0F5F      		subi r16,-1
  80 003c 1F4F      		sbci r17,-1
  81               	.LVL7:
  82               	.L4:
  83               		.loc 1 45 0 is_stmt 0 discriminator 1
  84 003e 81B7      		in r24,0x31
  85 0040 90E0      		ldi r25,0
  86 0042 0817      		cp r16,r24
  87 0044 1907      		cpc r17,r25
  88 0046 04F0      		brlt .L10
  46:../osccal/osccal.c ****         x = usbMeasureFrameLength() - targetValue;
  89               		.loc 1 46 0 is_stmt 1
  90 0048 00D0      		rcall usbMeasureFrameLength
  91               	.LVL8:
  92 004a 8453      		subi r24,52
  93 004c 9940      		sbci r25,9
  94               	.LVL9:
  95 004e 97FF      		sbrs r25,7
  96 0050 00C0      		rjmp .L5
  97 0052 9195      		neg r25
  98 0054 8195      		neg r24
  99 0056 9109      		sbc r25,__zero_reg__
 100               	.LVL10:
 101               	.L5:
  47:../osccal/osccal.c ****         if(x < 0)
  48:../osccal/osccal.c ****             x = -x;
  49:../osccal/osccal.c ****         if(x < optimumDev){
 102               		.loc 1 49 0
 103 0058 8E15      		cp r24,r14
 104 005a 9F05      		cpc r25,r15
 105 005c 04F4      		brge .L6
 106               	.LVL11:
  50:../osccal/osccal.c ****             optimumDev = x;
  51:../osccal/osccal.c ****             optimumValue = OSCCAL;
 107               		.loc 1 51 0
 108 005e C1B7      		in r28,0x31
 109               	.LVL12:
 110 0060 7C01      		movw r14,r24
 111               	.LVL13:
 112               	.L6:
  45:../osccal/osccal.c ****         x = usbMeasureFrameLength() - targetValue;
 113               		.loc 1 45 0 discriminator 2
 114 0062 81B7      		in r24,0x31
 115               	.LVL14:
 116 0064 8F5F      		subi r24,lo8(-(1))
 117 0066 81BF      		out 0x31,r24
 118 0068 00C0      		rjmp .L4
 119               	.L10:
  52:../osccal/osccal.c ****         }
  53:../osccal/osccal.c ****     }
  54:../osccal/osccal.c ****     OSCCAL = optimumValue;
 120               		.loc 1 54 0
 121 006a C1BF      		out 0x31,r28
 122               	/* epilogue start */
  55:../osccal/osccal.c **** }
 123               		.loc 1 55 0
 124 006c CDB7      		in r28,__SP_L__
 125 006e DEB7      		in r29,__SP_H__
 126               	.LVL15:
 127 0070 E7E0      		ldi r30, lo8(7)
 128 0072 00C0      		rjmp __epilogue_restores__ + ((18 - 7) * 2)
 129               		.cfi_endproc
 130               	.LFE2:
 131               		.size	calibrateOscillator, .-calibrateOscillator
 132               	.Letext0:
 133               		.file 2 "/usr/lib/avr/include/stdint.h"
 134               		.file 3 "../usbdrv/usbdrv.h"