   1               		.file	"usbstream.c"
   2               	__SP_H__ = 0x3e
   3               	__SP_L__ = 0x3d
   4               	__SREG__ = 0x3f
   5               	__tmp_reg__ = 0
   6               	__zero_reg__ = 1
   7               		.text
   8               	.Ltext0:
   9               		.cfi_sections	.debug_frame
  10               		.type	usb_stream_init, @function
  11               	usb_stream_init:
  12               	.LFB5:
  13               		.file 1 "../util/usbstream.c"
   1:../util/usbstream.c **** #include <avr/io.h>
   2:../util/usbstream.c **** #include <avr/interrupt.h>
   3:../util/usbstream.c **** #include <avr/pgmspace.h>
   4:../util/usbstream.c **** #include <avr/eeprom.h>
   5:../util/usbstream.c **** #include <avr/wdt.h>
   6:../util/usbstream.c **** 
   7:../util/usbstream.c **** #include <stdio.h>
   8:../util/usbstream.c **** #include <string.h>
   9:../util/usbstream.c **** #include <stdint.h>
  10:../util/usbstream.c **** #include <stddef.h>
  11:../util/usbstream.c **** #define USB_GET_REPORT_IDS
  12:../util/usbstream.c **** #include "usbdrv.h"
  13:../util/usbstream.c **** 
  14:../util/usbstream.c **** #include "stream.h"
  15:../util/usbstream.c **** #include "usbstream.h"
  16:../util/usbstream.c **** 
  17:../util/usbstream.c **** #ifndef USBSTREAM_DISABLE_RX
  18:../util/usbstream.c **** #define USBSTREAM_ENABLE_RX
  19:../util/usbstream.c **** #endif //#ifndef DISABLE_RX
  20:../util/usbstream.c **** 
  21:../util/usbstream.c **** #define noinline __attribute__((noinline))
  22:../util/usbstream.c **** 
  23:../util/usbstream.c **** 
  24:../util/usbstream.c **** typedef struct {
  25:../util/usbstream.c **** 	uint16_t magic;
  26:../util/usbstream.c **** 	stream_buffer_t base;
  27:../util/usbstream.c **** } usb_stream_buffer_internal_t;
  28:../util/usbstream.c **** 
  29:../util/usbstream.c **** 
  30:../util/usbstream.c **** typedef struct {
  31:../util/usbstream.c **** 	usb_stream_buffer_internal_t internal;
  32:../util/usbstream.c **** 	uint8_t data[128];
  33:../util/usbstream.c **** }usb_stream_buffer_out_t;
  34:../util/usbstream.c **** 
  35:../util/usbstream.c **** typedef struct {
  36:../util/usbstream.c **** 	usb_stream_buffer_internal_t internal;
  37:../util/usbstream.c **** 	uint8_t data[16];
  38:../util/usbstream.c **** }usb_stream_buffer_in_t;
  39:../util/usbstream.c **** 
  40:../util/usbstream.c **** 
  41:../util/usbstream.c **** static usb_stream_buffer_out_t usb_out_stream_buffer;
  42:../util/usbstream.c **** static uint8_t initialized = 0;
  43:../util/usbstream.c **** 
  44:../util/usbstream.c **** 
  45:../util/usbstream.c **** //Streams
  46:../util/usbstream.c **** ///////////////////////////////////////
  47:../util/usbstream.c **** 
  48:../util/usbstream.c **** 
  49:../util/usbstream.c **** static int usb_stream_putchar(char c, FILE *stream);
  50:../util/usbstream.c **** static int usb_stream_getchar(FILE *stream);
  51:../util/usbstream.c **** 
  52:../util/usbstream.c **** FILE usb_out_stream = FDEV_SETUP_STREAM2(usb_stream_putchar, NULL, _FDEV_SETUP_WRITE,&usb_out_strea
  53:../util/usbstream.c **** #ifdef USBSTREAM_ENABLE_RX
  54:../util/usbstream.c **** static usb_stream_buffer_in_t usb_in_stream_buffer;
  55:../util/usbstream.c **** FILE usb_in_stream = FDEV_SETUP_STREAM2(NULL,usb_stream_getchar, _FDEV_SETUP_READ,&usb_in_stream_bu
  56:../util/usbstream.c **** #else
  57:../util/usbstream.c **** FILE usb_in_stream = FDEV_SETUP_STREAM2(NULL,usb_stream_getchar, _FDEV_SETUP_READ,NULL);
  58:../util/usbstream.c **** #endif
  59:../util/usbstream.c **** 
  60:../util/usbstream.c **** #define USB_STREAM_MAGIX 0xBABE
  61:../util/usbstream.c **** #define USB_STREAM_OVERWRITE 0x01
  62:../util/usbstream.c **** 
  63:../util/usbstream.c **** static noinline void usb_stream_init(usb_stream_buffer_internal_t* s)
  64:../util/usbstream.c **** {
  14               		.loc 1 64 0
  15               		.cfi_startproc
  16               	.LVL0:
  17               	/* prologue: function */
  18               	/* frame size = 0 */
  19               	/* stack size = 0 */
  20               	.L__stack_usage = 0
  21 0000 FC01      		movw r30,r24
  65:../util/usbstream.c **** 	if (initialized == 0) {
  22               		.loc 1 65 0
  23 0002 8091 0000 		lds r24,initialized
  24               	.LVL1:
  25 0006 8111      		cpse r24,__zero_reg__
  26 0008 00C0      		rjmp .L2
  66:../util/usbstream.c **** 		usb_out_stream_buffer.internal.base.bufmask = 0x7F;
  27               		.loc 1 66 0
  28 000a 8FE7      		ldi r24,lo8(127)
  29 000c 8093 0000 		sts usb_out_stream_buffer+3,r24
  67:../util/usbstream.c **** 		usb_out_stream_buffer.internal.base.flags = USB_STREAM_OVERWRITE;
  30               		.loc 1 67 0
  31 0010 81E0      		ldi r24,lo8(1)
  32 0012 8093 0000 		sts usb_out_stream_buffer+2,r24
  68:../util/usbstream.c **** #ifdef USBSTREAM_ENABLE_RX
  69:../util/usbstream.c **** 		usb_in_stream_buffer.internal.base.bufmask = 0x0F;
  70:../util/usbstream.c **** 		usb_in_stream_buffer.internal.base.flags = 0;
  71:../util/usbstream.c **** #endif
  72:../util/usbstream.c **** 		initialized = 1;
  33               		.loc 1 72 0
  34 0016 8093 0000 		sts initialized,r24
  35               	.L2:
  73:../util/usbstream.c **** 	}
  74:../util/usbstream.c **** 	if (s->magic != USB_STREAM_MAGIX) {
  36               		.loc 1 74 0
  37 001a 8081      		ld r24,Z
  38 001c 9181      		ldd r25,Z+1
  39 001e 8E3B      		cpi r24,-66
  40 0020 9A4B      		sbci r25,-70
  41 0022 01F0      		breq .L1
  75:../util/usbstream.c **** 		s->magic = USB_STREAM_MAGIX;
  42               		.loc 1 75 0
  43 0024 8EEB      		ldi r24,lo8(-66)
  44 0026 9AEB      		ldi r25,lo8(-70)
  45 0028 9183      		std Z+1,r25
  46 002a 8083      		st Z,r24
  76:../util/usbstream.c **** 		s->base.read = 0;
  47               		.loc 1 76 0
  48 002c 1482      		std Z+4,__zero_reg__
  77:../util/usbstream.c **** 		s->base.write = 0;
  49               		.loc 1 77 0
  50 002e 1582      		std Z+5,__zero_reg__
  51               	.L1:
  52 0030 0895      		ret
  53               		.cfi_endproc
  54               	.LFE5:
  55               		.size	usb_stream_init, .-usb_stream_init
  56               		.type	usb_stream_putchar, @function
  57               	usb_stream_putchar:
  58               	.LFB6:
  78:../util/usbstream.c **** 	}
  79:../util/usbstream.c **** }
  80:../util/usbstream.c **** 
  81:../util/usbstream.c **** static noinline int usb_stream_putchar(char c, FILE *stream)
  82:../util/usbstream.c **** {
  59               		.loc 1 82 0
  60               		.cfi_startproc
  61               	.LVL2:
  62 0032 1F93      		push r17
  63               	.LCFI0:
  64               		.cfi_def_cfa_offset 3
  65               		.cfi_offset 17, -2
  66 0034 CF93      		push r28
  67               	.LCFI1:
  68               		.cfi_def_cfa_offset 4
  69               		.cfi_offset 28, -3
  70 0036 DF93      		push r29
  71               	.LCFI2:
  72               		.cfi_def_cfa_offset 5
  73               		.cfi_offset 29, -4
  74               	/* prologue: function */
  75               	/* frame size = 0 */
  76               	/* stack size = 3 */
  77               	.L__stack_usage = 3
  78 0038 182F      		mov r17,r24
  83:../util/usbstream.c **** 	usb_stream_buffer_internal_t* s = fdev_get_udata(stream);
  79               		.loc 1 83 0
  80 003a FB01      		movw r30,r22
  81 003c C485      		ldd r28,Z+12
  82 003e D585      		ldd r29,Z+13
  83               	.LVL3:
  84:../util/usbstream.c **** 	usb_stream_init(s);
  84               		.loc 1 84 0
  85 0040 CE01      		movw r24,r28
  86               	.LVL4:
  87 0042 00D0      		rcall usb_stream_init
  88               	.LVL5:
  85:../util/usbstream.c **** 	return stream_putchar(&s->base,c);
  89               		.loc 1 85 0
  90 0044 612F      		mov r22,r17
  91 0046 CE01      		movw r24,r28
  92 0048 0296      		adiw r24,2
  93 004a 00D0      		rcall stream_putchar
  94               	.LVL6:
  95               	/* epilogue start */
  86:../util/usbstream.c **** }
  96               		.loc 1 86 0
  97 004c DF91      		pop r29
  98 004e CF91      		pop r28
  99               	.LVL7:
 100 0050 1F91      		pop r17
 101               	.LVL8:
 102 0052 0895      		ret
 103               		.cfi_endproc
 104               	.LFE6:
 105               		.size	usb_stream_putchar, .-usb_stream_putchar
 106               		.type	usb_stream_getchar, @function
 107               	usb_stream_getchar:
 108               	.LFB7:
  87:../util/usbstream.c **** 
  88:../util/usbstream.c **** static noinline int usb_stream_getchar(FILE *stream)
  89:../util/usbstream.c **** {
 109               		.loc 1 89 0
 110               		.cfi_startproc
 111               	.LVL9:
 112 0054 CF93      		push r28
 113               	.LCFI3:
 114               		.cfi_def_cfa_offset 3
 115               		.cfi_offset 28, -2
 116 0056 DF93      		push r29
 117               	.LCFI4:
 118               		.cfi_def_cfa_offset 4
 119               		.cfi_offset 29, -3
 120               	/* prologue: function */
 121               	/* frame size = 0 */
 122               	/* stack size = 2 */
 123               	.L__stack_usage = 2
  90:../util/usbstream.c **** 	usb_stream_buffer_internal_t* s = fdev_get_udata(stream);
 124               		.loc 1 90 0
 125 0058 FC01      		movw r30,r24
 126 005a C485      		ldd r28,Z+12
 127 005c D585      		ldd r29,Z+13
 128               	.LVL10:
  91:../util/usbstream.c **** 	usb_stream_init(s);
 129               		.loc 1 91 0
 130 005e CE01      		movw r24,r28
 131               	.LVL11:
 132 0060 00D0      		rcall usb_stream_init
 133               	.LVL12:
  92:../util/usbstream.c **** 	return stream_getchar_nowait(&s->base);
 134               		.loc 1 92 0
 135 0062 CE01      		movw r24,r28
 136 0064 0296      		adiw r24,2
 137 0066 00D0      		rcall stream_getchar_nowait
 138               	.LVL13:
 139               	/* epilogue start */
  93:../util/usbstream.c **** }
 140               		.loc 1 93 0
 141 0068 DF91      		pop r29
 142 006a CF91      		pop r28
 143               	.LVL14:
 144 006c 0895      		ret
 145               		.cfi_endproc
 146               	.LFE7:
 147               		.size	usb_stream_getchar, .-usb_stream_getchar
 148               	.global	usbFunctionSetup
 149               		.type	usbFunctionSetup, @function
 150               	usbFunctionSetup:
 151               	.LFB8:
  94:../util/usbstream.c **** 
  95:../util/usbstream.c **** static uchar usb_buf_state;
  96:../util/usbstream.c **** static uchar usb_buf_report_id;
  97:../util/usbstream.c **** 
  98:../util/usbstream.c **** 
  99:../util/usbstream.c **** usbMsgLen_t usbFunctionSetup(uchar data[8])
 100:../util/usbstream.c **** {
 152               		.loc 1 100 0
 153               		.cfi_startproc
 154               	.LVL15:
 155               	/* prologue: function */
 156               	/* frame size = 0 */
 157               	/* stack size = 0 */
 158               	.L__stack_usage = 0
 159 006e FC01      		movw r30,r24
 160               	.LVL16:
 101:../util/usbstream.c **** 	usbRequest_t    *rq = (void *)data;
 102:../util/usbstream.c **** 	usb_buf_report_id = rq->wValue.bytes[0];
 161               		.loc 1 102 0
 162 0070 8281      		ldd r24,Z+2
 163               	.LVL17:
 164 0072 8093 0000 		sts usb_buf_report_id,r24
 103:../util/usbstream.c ****     if((rq->bmRequestType & USBRQ_TYPE_MASK) == USBRQ_TYPE_CLASS){    /* class request type */
 165               		.loc 1 103 0
 166 0076 9081      		ld r25,Z
 167 0078 9076      		andi r25,lo8(96)
 168 007a 9032      		cpi r25,lo8(32)
 169 007c 01F4      		brne .L11
 104:../util/usbstream.c ****         if(rq->bRequest == USBRQ_HID_GET_REPORT){  /* wValue: ReportType (highbyte), ReportID (lowb
 170               		.loc 1 104 0
 171 007e 9181      		ldd r25,Z+1
 172 0080 9130      		cpi r25,lo8(1)
 173 0082 01F4      		brne .L12
 105:../util/usbstream.c **** 
 106:../util/usbstream.c ****         	switch (rq->wValue.bytes[0]) {
 174               		.loc 1 106 0
 175 0084 8E37      		cpi r24,lo8(126)
 176 0086 01F0      		breq .L17
 177 0088 00C0      		rjmp .L11
 178               	.L12:
 107:../util/usbstream.c ****         		case report_id_buf_out_data:
 108:../util/usbstream.c ****         			usb_buf_state = 0;
 109:../util/usbstream.c ****         			return USB_NO_MSG;
 110:../util/usbstream.c **** #ifdef USBSTREAM_ENABLE_RX
 111:../util/usbstream.c ****         		case report_id_buf_in_getwritepos:
 112:../util/usbstream.c ****         			usbMsgPtr = (void*)&usb_in_stream_buffer.internal.base.write;
 113:../util/usbstream.c ****         			return sizeof(usb_in_stream_buffer.internal.base.write);
 114:../util/usbstream.c **** #endif //#ifdef USBSTREAM_ENABLE_RX
 115:../util/usbstream.c ****         		default:
 116:../util/usbstream.c ****         			break;
 117:../util/usbstream.c ****         	}
 118:../util/usbstream.c ****         }else if(rq->bRequest == USBRQ_HID_SET_REPORT){
 179               		.loc 1 118 0
 180 008a 9930      		cpi r25,lo8(9)
 181 008c 01F4      		brne .L11
 119:../util/usbstream.c ****         	switch (rq->wValue.bytes[0]) {
 182               		.loc 1 119 0
 183 008e 8C37      		cpi r24,lo8(124)
 184 0090 01F0      		breq .L16
 185 0092 8F37      		cpi r24,lo8(127)
 186 0094 01F4      		brne .L11
 187               	.L17:
 120:../util/usbstream.c ****         		case report_id_buf_out_setreadpos:
 121:../util/usbstream.c ****         			return USB_NO_MSG;
 122:../util/usbstream.c **** 
 123:../util/usbstream.c ****         		case report_id_buf_in_data:
 124:../util/usbstream.c ****         			usb_buf_state = 0;
 188               		.loc 1 124 0
 189 0096 1092 0000 		sts usb_buf_state,__zero_reg__
 190 009a 00C0      		rjmp .L16
 191               	.L11:
 192 009c CF01      		movw r24,r30
 125:../util/usbstream.c ****         			return USB_NO_MSG;
 126:../util/usbstream.c **** 
 127:../util/usbstream.c ****         		default:
 128:../util/usbstream.c ****         			break;
 129:../util/usbstream.c ****         	}
 130:../util/usbstream.c ****         }
 131:../util/usbstream.c ****     }
 132:../util/usbstream.c ****     return usbFunctionSetup2(data);
 193               		.loc 1 132 0
 194 009e 00D0      		rcall usbFunctionSetup2
 195               	.LVL18:
 196 00a0 0895      		ret
 197               	.LVL19:
 198               	.L16:
 121:../util/usbstream.c **** 
 199               		.loc 1 121 0
 200 00a2 8FEF      		ldi r24,lo8(-1)
 133:../util/usbstream.c **** }
 201               		.loc 1 133 0
 202 00a4 0895      		ret
 203               		.cfi_endproc
 204               	.LFE8:
 205               		.size	usbFunctionSetup, .-usbFunctionSetup
 206               		.weak	usbFunctionRead2
 207               		.type	usbFunctionRead2, @function
 208               	usbFunctionRead2:
 209               	.LFB14:
 210               		.cfi_startproc
 211               	/* prologue: function */
 212               	/* frame size = 0 */
 213               	/* stack size = 0 */
 214               	.L__stack_usage = 0
 215 00a6 80E0      		ldi r24,0
 216 00a8 0895      		ret
 217               		.cfi_endproc
 218               	.LFE14:
 219               		.size	usbFunctionRead2, .-usbFunctionRead2
 220               	.global	usbFunctionRead
 221               		.type	usbFunctionRead, @function
 222               	usbFunctionRead:
 223               	.LFB9:
 134:../util/usbstream.c **** 
 135:../util/usbstream.c **** 
 136:../util/usbstream.c **** uchar usbFunctionRead(uchar *data, uchar len)
 137:../util/usbstream.c **** {
 224               		.loc 1 137 0
 225               		.cfi_startproc
 226               	.LVL20:
 227               	/* prologue: function */
 228               	/* frame size = 0 */
 229               	/* stack size = 0 */
 230               	.L__stack_usage = 0
 138:../util/usbstream.c **** 	if (usb_buf_report_id == report_id_buf_out_data) {
 231               		.loc 1 138 0
 232 00aa 2091 0000 		lds r18,usb_buf_report_id
 233 00ae 2E37      		cpi r18,lo8(126)
 234 00b0 01F4      		brne .L20
 235 00b2 2091 0000 		lds r18,usb_buf_state
 236 00b6 DC01      		movw r26,r24
 237 00b8 962F      		mov r25,r22
 238 00ba 920F      		add r25,r18
 239               	.LVL21:
 240               	.L21:
 241               	.LBB2:
 139:../util/usbstream.c **** 		uchar i;
 140:../util/usbstream.c **** 		for (i = 0;i<len;i++) {
 242               		.loc 1 140 0 discriminator 1
 243 00bc 2917      		cp r18,r25
 244 00be 01F0      		breq .L27
 141:../util/usbstream.c **** 			if (usb_buf_state < sizeof(usb_out_stream_buffer.internal.base))
 245               		.loc 1 141 0
 246 00c0 2430      		cpi r18,lo8(4)
 247 00c2 00F4      		brsh .L22
 142:../util/usbstream.c **** 			{
 143:../util/usbstream.c **** 				data[i] = ((uchar*)&(usb_out_stream_buffer.internal.base))[usb_buf_state];
 248               		.loc 1 143 0
 249 00c4 E22F      		mov r30,r18
 250 00c6 F0E0      		ldi r31,0
 251 00c8 E050      		subi r30,lo8(-(usb_out_stream_buffer+2))
 252 00ca F040      		sbci r31,hi8(-(usb_out_stream_buffer+2))
 253 00cc 8081      		ld r24,Z
 254 00ce 00C0      		rjmp .L26
 255               	.L22:
 256               	.LBB3:
 144:../util/usbstream.c **** 			}
 145:../util/usbstream.c **** 			else {
 146:../util/usbstream.c **** 				uchar read_pos = usb_out_stream_buffer.internal.base.read + usb_buf_state - sizeof(usb_out_stre
 257               		.loc 1 146 0
 258 00d0 E091 0000 		lds r30,usb_out_stream_buffer+4
 259 00d4 E450      		subi r30,lo8(-(-4))
 260 00d6 E20F      		add r30,r18
 261               	.LVL22:
 147:../util/usbstream.c **** 				read_pos &= usb_out_stream_buffer.internal.base.bufmask;
 148:../util/usbstream.c **** 				data[i] = usb_out_stream_buffer.internal.base.data[read_pos];
 262               		.loc 1 148 0
 263 00d8 8091 0000 		lds r24,usb_out_stream_buffer+3
 264 00dc E823      		and r30,r24
 265               	.LVL23:
 266 00de F0E0      		ldi r31,0
 267 00e0 E050      		subi r30,lo8(-(usb_out_stream_buffer))
 268 00e2 F040      		sbci r31,hi8(-(usb_out_stream_buffer))
 269               	.LVL24:
 270 00e4 8681      		ldd r24,Z+6
 271               	.LVL25:
 272               	.L26:
 273 00e6 8C93      		st X,r24
 274               	.LBE3:
 149:../util/usbstream.c **** 			}
 150:../util/usbstream.c **** 			usb_buf_state++;
 275               		.loc 1 150 0
 276 00e8 2F5F      		subi r18,lo8(-(1))
 277 00ea 1196      		adiw r26,1
 278 00ec 00C0      		rjmp .L21
 279               	.L27:
 280 00ee 2093 0000 		sts usb_buf_state,r18
 140:../util/usbstream.c **** 			if (usb_buf_state < sizeof(usb_out_stream_buffer.internal.base))
 281               		.loc 1 140 0
 282 00f2 862F      		mov r24,r22
 283 00f4 0895      		ret
 284               	.LVL26:
 285               	.L20:
 286               	.LBE2:
 151:../util/usbstream.c **** 		}
 152:../util/usbstream.c **** 		return len;
 153:../util/usbstream.c **** 	}
 154:../util/usbstream.c **** 	return usbFunctionRead2(data,len);
 287               		.loc 1 154 0
 288 00f6 00D0      		rcall usbFunctionRead2
 289               	.LVL27:
 155:../util/usbstream.c **** }
 290               		.loc 1 155 0
 291 00f8 0895      		ret
 292               		.cfi_endproc
 293               	.LFE9:
 294               		.size	usbFunctionRead, .-usbFunctionRead
 295               		.weak	usbFunctionWrite2
 296               		.type	usbFunctionWrite2, @function
 297               	usbFunctionWrite2:
 298               	.LFB12:
 156:../util/usbstream.c **** 
 157:../util/usbstream.c **** #ifdef USBSTREAM_ENABLE_RX
 158:../util/usbstream.c **** static uchar usb_stream_buffer_write_len;
 159:../util/usbstream.c **** #endif
 160:../util/usbstream.c **** 
 161:../util/usbstream.c **** 
 162:../util/usbstream.c **** uchar usbFunctionWrite(uchar *data, uchar len)
 163:../util/usbstream.c **** {
 164:../util/usbstream.c **** 	if (usb_buf_report_id == report_id_buf_out_setreadpos)
 165:../util/usbstream.c **** 	{
 166:../util/usbstream.c **** 		usb_out_stream_buffer.internal.base.read = *((uint16_t*)&data[1]);
 167:../util/usbstream.c **** 		return len;
 168:../util/usbstream.c **** 	}
 169:../util/usbstream.c **** #ifdef USBSTREAM_ENABLE_RX
 170:../util/usbstream.c **** 	else if (usb_buf_report_id == report_id_buf_in_data) {
 171:../util/usbstream.c **** 		int i;
 172:../util/usbstream.c **** 		for (i=0;i<len;i++) {
 173:../util/usbstream.c **** 			if (usb_buf_state == 0){
 174:../util/usbstream.c **** 				usb_buf_state++;
 175:../util/usbstream.c **** 			}
 176:../util/usbstream.c **** 			else if (usb_buf_state == 1) {
 177:../util/usbstream.c **** 				usb_stream_buffer_write_len = data[i];
 178:../util/usbstream.c **** 				usb_buf_state++;
 179:../util/usbstream.c **** 			}
 180:../util/usbstream.c **** 			else if (usb_stream_buffer_write_len > 0){
 181:../util/usbstream.c **** 				fputc(data[i],&usb_in_stream);
 182:../util/usbstream.c **** 				usb_stream_buffer_write_len--;
 183:../util/usbstream.c **** 			}
 184:../util/usbstream.c **** 		}
 185:../util/usbstream.c **** 		return len;
 186:../util/usbstream.c **** 	}
 187:../util/usbstream.c **** #endif //#ifdef USBSTREAM_ENABLE_RX
 188:../util/usbstream.c **** 	return usbFunctionWrite2(data,len);
 189:../util/usbstream.c **** }
 190:../util/usbstream.c **** 
 191:../util/usbstream.c **** uchar __attribute__((__weak__)) usbFunctionRead2(uchar *data, uchar len)
 192:../util/usbstream.c **** {
 193:../util/usbstream.c **** 	return 0;
 194:../util/usbstream.c **** }
 195:../util/usbstream.c **** uchar __attribute__((__weak__)) usbFunctionWrite2(uchar *data, uchar len)
 196:../util/usbstream.c **** {
 299               		.loc 1 196 0
 300               		.cfi_startproc
 301               	.LVL28:
 302               	/* prologue: function */
 303               	/* frame size = 0 */
 304               	/* stack size = 0 */
 305               	.L__stack_usage = 0
 197:../util/usbstream.c **** 	return 0;
 198:../util/usbstream.c **** }
 306               		.loc 1 198 0
 307 00fa 80E0      		ldi r24,0
 308               	.LVL29:
 309 00fc 0895      		ret
 310               		.cfi_endproc
 311               	.LFE12:
 312               		.size	usbFunctionWrite2, .-usbFunctionWrite2
 313               	.global	usbFunctionWrite
 314               		.type	usbFunctionWrite, @function
 315               	usbFunctionWrite:
 316               	.LFB10:
 163:../util/usbstream.c **** 	if (usb_buf_report_id == report_id_buf_out_setreadpos)
 317               		.loc 1 163 0
 318               		.cfi_startproc
 319               	.LVL30:
 320               	/* prologue: function */
 321               	/* frame size = 0 */
 322               	/* stack size = 0 */
 323               	.L__stack_usage = 0
 164:../util/usbstream.c **** 	{
 324               		.loc 1 164 0
 325 00fe 2091 0000 		lds r18,usb_buf_report_id
 326 0102 2C37      		cpi r18,lo8(124)
 327 0104 01F4      		brne .L30
 166:../util/usbstream.c **** 		return len;
 328               		.loc 1 166 0
 329 0106 FC01      		movw r30,r24
 330 0108 8181      		ldd r24,Z+1
 331               	.LVL31:
 332 010a 8093 0000 		sts usb_out_stream_buffer+4,r24
 167:../util/usbstream.c **** 	}
 333               		.loc 1 167 0
 334 010e 862F      		mov r24,r22
 335 0110 0895      		ret
 336               	.LVL32:
 337               	.L30:
 188:../util/usbstream.c **** }
 338               		.loc 1 188 0
 339 0112 00D0      		rcall usbFunctionWrite2
 340               	.LVL33:
 189:../util/usbstream.c **** 
 341               		.loc 1 189 0
 342 0114 0895      		ret
 343               		.cfi_endproc
 344               	.LFE10:
 345               		.size	usbFunctionWrite, .-usbFunctionWrite
 346               		.local	usb_buf_report_id
 347               		.comm	usb_buf_report_id,1,1
 348               		.local	usb_buf_state
 349               		.comm	usb_buf_state,1,1
 350               	.global	usb_in_stream
 351               		.data
 352               		.type	usb_in_stream, @object
 353               		.size	usb_in_stream, 14
 354               	usb_in_stream:
 355 0000 0000 00   		.zero	3
 356 0003 01        		.byte	1
 357 0004 0000 0000 		.zero	4
 358 0008 0000      		.word	0
 359 000a 0000      		.word	gs(usb_stream_getchar)
 360 000c 0000      		.word	0
 361               	.global	usb_out_stream
 362               		.type	usb_out_stream, @object
 363               		.size	usb_out_stream, 14
 364               	usb_out_stream:
 365 000e 0000 00   		.zero	3
 366 0011 02        		.byte	2
 367 0012 0000 0000 		.zero	4
 368 0016 0000      		.word	gs(usb_stream_putchar)
 369 0018 0000      		.word	0
 370 001a 0000      		.word	usb_out_stream_buffer
 371               		.local	initialized
 372               		.comm	initialized,1,1
 373               		.local	usb_out_stream_buffer
 374               		.comm	usb_out_stream_buffer,134,1
 375               		.text
 376               	.Letext0:
 377               		.file 2 "/usr/lib/avr/include/stdint.h"
 378               		.file 3 "/usr/lib/avr/include/stdio.h"
 379               		.file 4 "../util/stream.h"
 380               		.file 5 "../usbdrv/usbdrv.h"
 381               		.file 6 "../util/usbstream.h"
 382               		.file 7 "./usbconfig.h"